
mm.riscv:     file format elf32-littleriscv


Disassembly of section .text.init:

80000000 <_start>:
80000000:	4081                	li	ra,0
80000002:	4101                	li	sp,0
80000004:	4181                	li	gp,0
80000006:	4201                	li	tp,0
80000008:	4281                	li	t0,0
8000000a:	4301                	li	t1,0
8000000c:	4381                	li	t2,0
8000000e:	4401                	li	s0,0
80000010:	4481                	li	s1,0
80000012:	4501                	li	a0,0
80000014:	4581                	li	a1,0
80000016:	4601                	li	a2,0
80000018:	4681                	li	a3,0
8000001a:	4701                	li	a4,0
8000001c:	4781                	li	a5,0
8000001e:	4801                	li	a6,0
80000020:	4881                	li	a7,0
80000022:	4901                	li	s2,0
80000024:	4981                	li	s3,0
80000026:	4a01                	li	s4,0
80000028:	4a81                	li	s5,0
8000002a:	4b01                	li	s6,0
8000002c:	4b81                	li	s7,0
8000002e:	4c01                	li	s8,0
80000030:	4c81                	li	s9,0
80000032:	4d01                	li	s10,0
80000034:	4d81                	li	s11,0
80000036:	4e01                	li	t3,0
80000038:	4e81                	li	t4,0
8000003a:	4f01                	li	t5,0
8000003c:	4f81                	li	t6,0
8000003e:	62f9                	lui	t0,0x1e
80000040:	3002a073          	csrs	mstatus,t0
80000044:	4285                	li	t0,1
80000046:	02fe                	slli	t0,t0,0x1f
80000048:	0002c863          	bltz	t0,80000058 <_start+0x58>
8000004c:	4505                	li	a0,1
8000004e:	00001297          	auipc	t0,0x1
80000052:	faa2a923          	sw	a0,-78(t0) # 80001000 <tohost>
80000056:	bfdd                	j	8000004c <_start+0x4c>
80000058:	00000297          	auipc	t0,0x0
8000005c:	09028293          	addi	t0,t0,144 # 800000e8 <_start+0xe8>
80000060:	30529073          	csrw	mtvec,t0
80000064:	00301073          	fssr	zero
80000068:	f0000053          	fmv.w.x	ft0,zero
8000006c:	f00000d3          	fmv.w.x	ft1,zero
80000070:	f0000153          	fmv.w.x	ft2,zero
80000074:	f00001d3          	fmv.w.x	ft3,zero
80000078:	f0000253          	fmv.w.x	ft4,zero
8000007c:	f00002d3          	fmv.w.x	ft5,zero
80000080:	f0000353          	fmv.w.x	ft6,zero
80000084:	f00003d3          	fmv.w.x	ft7,zero
80000088:	f0000453          	fmv.w.x	fs0,zero
8000008c:	f00004d3          	fmv.w.x	fs1,zero
80000090:	f0000553          	fmv.w.x	fa0,zero
80000094:	f00005d3          	fmv.w.x	fa1,zero
80000098:	f0000653          	fmv.w.x	fa2,zero
8000009c:	f00006d3          	fmv.w.x	fa3,zero
800000a0:	f0000753          	fmv.w.x	fa4,zero
800000a4:	f00007d3          	fmv.w.x	fa5,zero
800000a8:	f0000853          	fmv.w.x	fa6,zero
800000ac:	f00008d3          	fmv.w.x	fa7,zero
800000b0:	f0000953          	fmv.w.x	fs2,zero
800000b4:	f00009d3          	fmv.w.x	fs3,zero
800000b8:	f0000a53          	fmv.w.x	fs4,zero
800000bc:	f0000ad3          	fmv.w.x	fs5,zero
800000c0:	f0000b53          	fmv.w.x	fs6,zero
800000c4:	f0000bd3          	fmv.w.x	fs7,zero
800000c8:	f0000c53          	fmv.w.x	fs8,zero
800000cc:	f0000cd3          	fmv.w.x	fs9,zero
800000d0:	f0000d53          	fmv.w.x	fs10,zero
800000d4:	f0000dd3          	fmv.w.x	fs11,zero
800000d8:	f0000e53          	fmv.w.x	ft8,zero
800000dc:	f0000ed3          	fmv.w.x	ft9,zero
800000e0:	f0000f53          	fmv.w.x	ft10,zero
800000e4:	f0000fd3          	fmv.w.x	ft11,zero
800000e8:	00000297          	auipc	t0,0x0
800000ec:	03828293          	addi	t0,t0,56 # 80000120 <trap_entry>
800000f0:	30529073          	csrw	mtvec,t0
800000f4:	00005197          	auipc	gp,0x5
800000f8:	35418193          	addi	gp,gp,852 # 80005448 <__global_pointer$>
800000fc:	bf718213          	addi	tp,gp,-1033 # 8000503f <_end+0x3f>
80000100:	fc027213          	andi	tp,tp,-64
80000104:	f1402573          	csrr	a0,mhartid
80000108:	4585                	li	a1,1
8000010a:	00b57063          	bleu	a1,a0,8000010a <_start+0x10a>
8000010e:	00150113          	addi	sp,a0,1
80000112:	0146                	slli	sp,sp,0x11
80000114:	9112                	add	sp,sp,tp
80000116:	01151613          	slli	a2,a0,0x11
8000011a:	9232                	add	tp,tp,a2
8000011c:	7650306f          	j	80004080 <_init>

80000120 <trap_entry>:
80000120:	716d                	addi	sp,sp,-272
80000122:	c206                	sw	ra,4(sp)
80000124:	c40a                	sw	sp,8(sp)
80000126:	c60e                	sw	gp,12(sp)
80000128:	c812                	sw	tp,16(sp)
8000012a:	ca16                	sw	t0,20(sp)
8000012c:	cc1a                	sw	t1,24(sp)
8000012e:	ce1e                	sw	t2,28(sp)
80000130:	d022                	sw	s0,32(sp)
80000132:	d226                	sw	s1,36(sp)
80000134:	d42a                	sw	a0,40(sp)
80000136:	d62e                	sw	a1,44(sp)
80000138:	d832                	sw	a2,48(sp)
8000013a:	da36                	sw	a3,52(sp)
8000013c:	dc3a                	sw	a4,56(sp)
8000013e:	de3e                	sw	a5,60(sp)
80000140:	c0c2                	sw	a6,64(sp)
80000142:	c2c6                	sw	a7,68(sp)
80000144:	c4ca                	sw	s2,72(sp)
80000146:	c6ce                	sw	s3,76(sp)
80000148:	c8d2                	sw	s4,80(sp)
8000014a:	cad6                	sw	s5,84(sp)
8000014c:	ccda                	sw	s6,88(sp)
8000014e:	cede                	sw	s7,92(sp)
80000150:	d0e2                	sw	s8,96(sp)
80000152:	d2e6                	sw	s9,100(sp)
80000154:	d4ea                	sw	s10,104(sp)
80000156:	d6ee                	sw	s11,108(sp)
80000158:	d8f2                	sw	t3,112(sp)
8000015a:	daf6                	sw	t4,116(sp)
8000015c:	dcfa                	sw	t5,120(sp)
8000015e:	defe                	sw	t6,124(sp)
80000160:	34202573          	csrr	a0,mcause
80000164:	341025f3          	csrr	a1,mepc
80000168:	860a                	mv	a2,sp
8000016a:	585030ef          	jal	ra,80003eee <handle_trap>
8000016e:	34151073          	csrw	mepc,a0
80000172:	000022b7          	lui	t0,0x2
80000176:	80028293          	addi	t0,t0,-2048 # 1800 <buflen.2802+0x1780>
8000017a:	3002a073          	csrs	mstatus,t0
8000017e:	4092                	lw	ra,4(sp)
80000180:	4122                	lw	sp,8(sp)
80000182:	41b2                	lw	gp,12(sp)
80000184:	4242                	lw	tp,16(sp)
80000186:	42d2                	lw	t0,20(sp)
80000188:	4362                	lw	t1,24(sp)
8000018a:	43f2                	lw	t2,28(sp)
8000018c:	5402                	lw	s0,32(sp)
8000018e:	5492                	lw	s1,36(sp)
80000190:	5522                	lw	a0,40(sp)
80000192:	55b2                	lw	a1,44(sp)
80000194:	5642                	lw	a2,48(sp)
80000196:	56d2                	lw	a3,52(sp)
80000198:	5762                	lw	a4,56(sp)
8000019a:	57f2                	lw	a5,60(sp)
8000019c:	4806                	lw	a6,64(sp)
8000019e:	4896                	lw	a7,68(sp)
800001a0:	4926                	lw	s2,72(sp)
800001a2:	49b6                	lw	s3,76(sp)
800001a4:	4a46                	lw	s4,80(sp)
800001a6:	4ad6                	lw	s5,84(sp)
800001a8:	4b66                	lw	s6,88(sp)
800001aa:	4bf6                	lw	s7,92(sp)
800001ac:	5c06                	lw	s8,96(sp)
800001ae:	5c96                	lw	s9,100(sp)
800001b0:	5d26                	lw	s10,104(sp)
800001b2:	5db6                	lw	s11,108(sp)
800001b4:	5e46                	lw	t3,112(sp)
800001b6:	5ed6                	lw	t4,116(sp)
800001b8:	5f66                	lw	t5,120(sp)
800001ba:	5ff6                	lw	t6,124(sp)
800001bc:	6151                	addi	sp,sp,272
800001be:	30200073          	mret

Disassembly of section .text:

80001048 <mm_naive>:
80001048:	12050d63          	beqz	a0,80001182 <mm_naive+0x13a>
8000104c:	7139                	addi	sp,sp,-64
8000104e:	4306                	lw	t1,64(sp)
80001050:	de22                	sw	s0,60(sp)
80001052:	00381413          	slli	s0,a6,0x3
80001056:	dc26                	sw	s1,56(sp)
80001058:	d05e                	sw	s7,32(sp)
8000105a:	cc66                	sw	s9,24(sp)
8000105c:	41000bb3          	neg	s7,a6
80001060:	00361493          	slli	s1,a2,0x3
80001064:	030e                	slli	t1,t1,0x3
80001066:	8cc6                	mv	s9,a7
80001068:	008788b3          	add	a7,a5,s0
8000106c:	d456                	sw	s5,40(sp)
8000106e:	d25a                	sw	s6,36(sp)
80001070:	ce62                	sw	s8,28(sp)
80001072:	ca6a                	sw	s10,20(sp)
80001074:	c86e                	sw	s11,16(sp)
80001076:	c646                	sw	a7,12(sp)
80001078:	003b9c13          	slli	s8,s7,0x3
8000107c:	da4a                	sw	s2,52(sp)
8000107e:	d84e                	sw	s3,48(sp)
80001080:	d652                	sw	s4,44(sp)
80001082:	c41a                	sw	t1,8(sp)
80001084:	00371d93          	slli	s11,a4,0x3
80001088:	8b36                	mv	s6,a3
8000108a:	94b6                	add	s1,s1,a3
8000108c:	00581e13          	slli	t3,a6,0x5
80001090:	4a81                	li	s5,0
80001092:	4d01                	li	s10,0
80001094:	ffc67893          	andi	a7,a2,-4
80001098:	0b92                	slli	s7,s7,0x4
8000109a:	c9d5                	beqz	a1,8000114e <mm_naive+0x106>
8000109c:	4a32                	lw	s4,12(sp)
8000109e:	8966                	mv	s2,s9
800010a0:	4981                	li	s3,0
800010a2:	00093787          	fld	fa5,0(s2)
800010a6:	0c088a63          	beqz	a7,8000117a <mm_naive+0x132>
800010aa:	d20006d3          	fcvt.d.w	fa3,zero
800010ae:	014c0f33          	add	t5,s8,s4
800010b2:	417f0eb3          	sub	t4,t5,s7
800010b6:	22d68653          	fmv.d	fa2,fa3
800010ba:	22d68753          	fmv.d	fa4,fa3
800010be:	008e83b3          	add	t2,t4,s0
800010c2:	82d2                	mv	t0,s4
800010c4:	835a                	mv	t1,s6
800010c6:	4f81                	li	t6,0
800010c8:	00033287          	fld	ft5,0(t1)
800010cc:	000f3207          	fld	ft4,0(t5)
800010d0:	00833187          	fld	ft3,8(t1)
800010d4:	0002b107          	fld	ft2,0(t0)
800010d8:	01033087          	fld	ft1,16(t1)
800010dc:	000eb007          	fld	ft0,0(t4)
800010e0:	01833507          	fld	fa0,24(t1)
800010e4:	0003b587          	fld	fa1,0(t2)
800010e8:	0f91                	addi	t6,t6,4
800010ea:	7a42f7c3          	fmadd.d	fa5,ft5,ft4,fa5
800010ee:	7221f743          	fmadd.d	fa4,ft3,ft2,fa4
800010f2:	6200f643          	fmadd.d	fa2,ft1,ft0,fa2
800010f6:	6ab576c3          	fmadd.d	fa3,fa0,fa1,fa3
800010fa:	02030313          	addi	t1,t1,32
800010fe:	9f72                	add	t5,t5,t3
80001100:	92f2                	add	t0,t0,t3
80001102:	9ef2                	add	t4,t4,t3
80001104:	93f2                	add	t2,t2,t3
80001106:	fd1fe1e3          	bltu	t6,a7,800010c8 <mm_naive+0x80>
8000110a:	02c77753          	fadd.d	fa4,fa4,fa2
8000110e:	8346                	mv	t1,a7
80001110:	02d77753          	fadd.d	fa4,fa4,fa3
80001114:	02c37463          	bleu	a2,t1,8000113c <mm_naive+0xf4>
80001118:	02680eb3          	mul	t4,a6,t1
8000111c:	9356                	add	t1,t1,s5
8000111e:	030e                	slli	t1,t1,0x3
80001120:	9336                	add	t1,t1,a3
80001122:	9ece                	add	t4,t4,s3
80001124:	0e8e                	slli	t4,t4,0x3
80001126:	9ebe                	add	t4,t4,a5
80001128:	00033607          	fld	fa2,0(t1)
8000112c:	000eb687          	fld	fa3,0(t4)
80001130:	0321                	addi	t1,t1,8
80001132:	9ea2                	add	t4,t4,s0
80001134:	7ad677c3          	fmadd.d	fa5,fa2,fa3,fa5
80001138:	fe6498e3          	bne	s1,t1,80001128 <mm_naive+0xe0>
8000113c:	02e7f7d3          	fadd.d	fa5,fa5,fa4
80001140:	0921                	addi	s2,s2,8
80001142:	0985                	addi	s3,s3,1
80001144:	0a21                	addi	s4,s4,8
80001146:	fef93c27          	fsd	fa5,-8(s2)
8000114a:	f5359ce3          	bne	a1,s3,800010a2 <mm_naive+0x5a>
8000114e:	4322                	lw	t1,8(sp)
80001150:	0d05                	addi	s10,s10,1
80001152:	9b6e                	add	s6,s6,s11
80001154:	9c9a                	add	s9,s9,t1
80001156:	94ee                	add	s1,s1,s11
80001158:	9aba                	add	s5,s5,a4
8000115a:	f5a510e3          	bne	a0,s10,8000109a <mm_naive+0x52>
8000115e:	5472                	lw	s0,60(sp)
80001160:	54e2                	lw	s1,56(sp)
80001162:	5952                	lw	s2,52(sp)
80001164:	59c2                	lw	s3,48(sp)
80001166:	5a32                	lw	s4,44(sp)
80001168:	5aa2                	lw	s5,40(sp)
8000116a:	5b12                	lw	s6,36(sp)
8000116c:	5b82                	lw	s7,32(sp)
8000116e:	4c72                	lw	s8,28(sp)
80001170:	4ce2                	lw	s9,24(sp)
80001172:	4d52                	lw	s10,20(sp)
80001174:	4dc2                	lw	s11,16(sp)
80001176:	6121                	addi	sp,sp,64
80001178:	8082                	ret
8000117a:	d2000753          	fcvt.d.w	fa4,zero
8000117e:	4301                	li	t1,0
80001180:	bf51                	j	80001114 <mm_naive+0xcc>
80001182:	8082                	ret

80001184 <mm_cb>:
80001184:	7165                	addi	sp,sp,-400
80001186:	18812423          	sw	s0,392(sp)
8000118a:	18912223          	sw	s1,388(sp)
8000118e:	0b00                	addi	s0,sp,400
80001190:	19212023          	sw	s2,384(sp)
80001194:	18112623          	sw	ra,396(sp)
80001198:	17312e23          	sw	s3,380(sp)
8000119c:	17412c23          	sw	s4,376(sp)
800011a0:	17512a23          	sw	s5,372(sp)
800011a4:	17612823          	sw	s6,368(sp)
800011a8:	17712623          	sw	s7,364(sp)
800011ac:	17812423          	sw	s8,360(sp)
800011b0:	17912223          	sw	s9,356(sp)
800011b4:	17a12023          	sw	s10,352(sp)
800011b8:	15b12e23          	sw	s11,348(sp)
800011bc:	a6a2                	fsd	fs0,328(sp)
800011be:	a2a6                	fsd	fs1,320(sp)
800011c0:	be4a                	fsd	fs2,312(sp)
800011c2:	ba4e                	fsd	fs3,304(sp)
800011c4:	b652                	fsd	fs4,296(sp)
800011c6:	b256                	fsd	fs5,288(sp)
800011c8:	ae5a                	fsd	fs6,280(sp)
800011ca:	aa5e                	fsd	fs7,272(sp)
800011cc:	a662                	fsd	fs8,264(sp)
800011ce:	a266                	fsd	fs9,256(sp)
800011d0:	bdea                	fsd	fs10,248(sp)
800011d2:	b9ee                	fsd	fs11,240(sp)
800011d4:	8f32                	mv	t5,a2
800011d6:	f2c42c23          	sw	a2,-200(s0)
800011da:	4665                	li	a2,25
800011dc:	02c5d4b3          	divu	s1,a1,a2
800011e0:	4361                	li	t1,24
800011e2:	f4e42423          	sw	a4,-184(s0)
800011e6:	8eba                	mv	t4,a4
800011e8:	eea42a23          	sw	a0,-268(s0)
800011ec:	f2b42023          	sw	a1,-224(s0)
800011f0:	ead42e23          	sw	a3,-324(s0)
800011f4:	6609                	lui	a2,0x2
800011f6:	167d                	addi	a2,a2,-1
800011f8:	75f9                	lui	a1,0xffffe
800011fa:	026f5733          	divu	a4,t5,t1
800011fe:	f2942e23          	sw	s1,-196(s0)
80001202:	eef42823          	sw	a5,-272(s0)
80001206:	00149793          	slli	a5,s1,0x1
8000120a:	97a6                	add	a5,a5,s1
8000120c:	078e                	slli	a5,a5,0x3
8000120e:	94be                	add	s1,s1,a5
80001210:	f5042623          	sw	a6,-180(s0)
80001214:	f1142a23          	sw	a7,-236(s0)
80001218:	f2942823          	sw	s1,-208(s0)
8000121c:	02655333          	divu	t1,a0,t1
80001220:	00171793          	slli	a5,a4,0x1
80001224:	97ba                	add	a5,a5,a4
80001226:	00379913          	slli	s2,a5,0x3
8000122a:	ece42c23          	sw	a4,-296(s0)
8000122e:	f5242223          	sw	s2,-188(s0)
80001232:	00131793          	slli	a5,t1,0x1
80001236:	933e                	add	t1,t1,a5
80001238:	00331513          	slli	a0,t1,0x3
8000123c:	032507b3          	mul	a5,a0,s2
80001240:	f2a42a23          	sw	a0,-204(s0)
80001244:	40078793          	addi	a5,a5,1024
80001248:	078e                	slli	a5,a5,0x3
8000124a:	07c1                	addi	a5,a5,16
8000124c:	40f10133          	sub	sp,sp,a5
80001250:	081c                	addi	a5,sp,16
80001252:	97b2                	add	a5,a5,a2
80001254:	8fed                	and	a5,a5,a1
80001256:	03248733          	mul	a4,s1,s2
8000125a:	ecf42a23          	sw	a5,-300(s0)
8000125e:	029507b3          	mul	a5,a0,s1
80001262:	40070713          	addi	a4,a4,1024
80001266:	070e                	slli	a4,a4,0x3
80001268:	0741                	addi	a4,a4,16
8000126a:	40e10133          	sub	sp,sp,a4
8000126e:	0818                	addi	a4,sp,16
80001270:	9732                	add	a4,a4,a2
80001272:	8f6d                	and	a4,a4,a1
80001274:	ece42823          	sw	a4,-304(s0)
80001278:	40078793          	addi	a5,a5,1024
8000127c:	078e                	slli	a5,a5,0x3
8000127e:	07c1                	addi	a5,a5,16
80001280:	40f10133          	sub	sp,sp,a5
80001284:	081c                	addi	a5,sp,16
80001286:	963e                	add	a2,a2,a5
80001288:	00b677b3          	and	a5,a2,a1
8000128c:	f0f42e23          	sw	a5,-228(s0)
80001290:	cd5d                	beqz	a0,8000134e <mm_cb+0x1ca>
80001292:	87f6                	mv	a5,t4
80001294:	001e9813          	slli	a6,t4,0x1
80001298:	9ec2                	add	t4,t4,a6
8000129a:	00379f13          	slli	t5,a5,0x3
8000129e:	6305                	lui	t1,0x1
800012a0:	0e9a                	slli	t4,t4,0x6
800012a2:	8e36                	mv	t3,a3
800012a4:	efe42423          	sw	t5,-280(s0)
800012a8:	4501                	li	a0,0
800012aa:	4fe1                	li	t6,24
800012ac:	20030313          	addi	t1,t1,512 # 1200 <buflen.2802+0x1180>
800012b0:	06090f63          	beqz	s2,8000132e <mm_cb+0x1aa>
800012b4:	03f552b3          	divu	t0,a0,t6
800012b8:	ed842783          	lw	a5,-296(s0)
800012bc:	84f2                	mv	s1,t3
800012be:	4381                	li	t2,0
800012c0:	02f282b3          	mul	t0,t0,a5
800012c4:	8626                	mv	a2,s1
800012c6:	03f3d7b3          	divu	a5,t2,t6
800012ca:	9796                	add	a5,a5,t0
800012cc:	00379693          	slli	a3,a5,0x3
800012d0:	96be                	add	a3,a3,a5
800012d2:	ed442783          	lw	a5,-300(s0)
800012d6:	06a6                	slli	a3,a3,0x9
800012d8:	96be                	add	a3,a3,a5
800012da:	006688b3          	add	a7,a3,t1
800012de:	0c060593          	addi	a1,a2,192 # 20c0 <buflen.2802+0x2040>
800012e2:	8736                	mv	a4,a3
800012e4:	87b2                	mv	a5,a2
800012e6:	0007b087          	fld	ft1,0(a5)
800012ea:	0087b007          	fld	ft0,8(a5)
800012ee:	2b88                	fld	fa0,16(a5)
800012f0:	2f8c                	fld	fa1,24(a5)
800012f2:	3390                	fld	fa2,32(a5)
800012f4:	3794                	fld	fa3,40(a5)
800012f6:	3b98                	fld	fa4,48(a5)
800012f8:	3f9c                	fld	fa5,56(a5)
800012fa:	00173027          	fsd	ft1,0(a4)
800012fe:	00073427          	fsd	ft0,8(a4)
80001302:	ab08                	fsd	fa0,16(a4)
80001304:	af0c                	fsd	fa1,24(a4)
80001306:	b310                	fsd	fa2,32(a4)
80001308:	b714                	fsd	fa3,40(a4)
8000130a:	bb18                	fsd	fa4,48(a4)
8000130c:	bf1c                	fsd	fa5,56(a4)
8000130e:	04078793          	addi	a5,a5,64
80001312:	04070713          	addi	a4,a4,64
80001316:	fcf598e3          	bne	a1,a5,800012e6 <mm_cb+0x162>
8000131a:	0c068693          	addi	a3,a3,192
8000131e:	967a                	add	a2,a2,t5
80001320:	fad89fe3          	bne	a7,a3,800012de <mm_cb+0x15a>
80001324:	03e1                	addi	t2,t2,24
80001326:	0c048493          	addi	s1,s1,192
8000132a:	f923ede3          	bltu	t2,s2,800012c4 <mm_cb+0x140>
8000132e:	f3442783          	lw	a5,-204(s0)
80001332:	0561                	addi	a0,a0,24
80001334:	9e76                	add	t3,t3,t4
80001336:	f6f56de3          	bltu	a0,a5,800012b0 <mm_cb+0x12c>
8000133a:	f4442783          	lw	a5,-188(s0)
8000133e:	ef81                	bnez	a5,80001356 <mm_cb+0x1d2>
80001340:	f4c42783          	lw	a5,-180(s0)
80001344:	00179513          	slli	a0,a5,0x1
80001348:	00379d93          	slli	s11,a5,0x3
8000134c:	a8c9                	j	8000141e <mm_cb+0x29a>
8000134e:	f4442783          	lw	a5,-188(s0)
80001352:	78078e63          	beqz	a5,80001aee <mm_cb+0x96a>
80001356:	f4c42783          	lw	a5,-180(s0)
8000135a:	ef042703          	lw	a4,-272(s0)
8000135e:	f3042483          	lw	s1,-208(s0)
80001362:	00179513          	slli	a0,a5,0x1
80001366:	00f50f33          	add	t5,a0,a5
8000136a:	6885                	lui	a7,0x1
8000136c:	0f1a                	slli	t5,t5,0x6
8000136e:	0c070e93          	addi	t4,a4,192
80001372:	00379d93          	slli	s11,a5,0x3
80001376:	4301                	li	t1,0
80001378:	43e1                	li	t2,24
8000137a:	42e5                	li	t0,25
8000137c:	2c088893          	addi	a7,a7,704 # 12c0 <buflen.2802+0x1240>
80001380:	ccb5                	beqz	s1,800013fc <mm_cb+0x278>
80001382:	02735833          	divu	a6,t1,t2
80001386:	f3c42783          	lw	a5,-196(s0)
8000138a:	8ff6                	mv	t6,t4
8000138c:	4e01                	li	t3,0
8000138e:	02f80833          	mul	a6,a6,a5
80001392:	ed042783          	lw	a5,-304(s0)
80001396:	86fe                	mv	a3,t6
80001398:	025e5633          	divu	a2,t3,t0
8000139c:	9642                	add	a2,a2,a6
8000139e:	03160633          	mul	a2,a2,a7
800013a2:	963e                	add	a2,a2,a5
800013a4:	011605b3          	add	a1,a2,a7
800013a8:	f4068793          	addi	a5,a3,-192
800013ac:	8732                	mv	a4,a2
800013ae:	0007b087          	fld	ft1,0(a5)
800013b2:	0087b007          	fld	ft0,8(a5)
800013b6:	2b88                	fld	fa0,16(a5)
800013b8:	2f8c                	fld	fa1,24(a5)
800013ba:	3390                	fld	fa2,32(a5)
800013bc:	3794                	fld	fa3,40(a5)
800013be:	3b98                	fld	fa4,48(a5)
800013c0:	3f9c                	fld	fa5,56(a5)
800013c2:	00173027          	fsd	ft1,0(a4)
800013c6:	00073427          	fsd	ft0,8(a4)
800013ca:	ab08                	fsd	fa0,16(a4)
800013cc:	af0c                	fsd	fa1,24(a4)
800013ce:	b310                	fsd	fa2,32(a4)
800013d0:	b714                	fsd	fa3,40(a4)
800013d2:	bb18                	fsd	fa4,48(a4)
800013d4:	bf1c                	fsd	fa5,56(a4)
800013d6:	04078793          	addi	a5,a5,64
800013da:	04070713          	addi	a4,a4,64
800013de:	fcf698e3          	bne	a3,a5,800013ae <mm_cb+0x22a>
800013e2:	229c                	fld	fa5,0(a3)
800013e4:	0c860613          	addi	a2,a2,200
800013e8:	96ee                	add	a3,a3,s11
800013ea:	fef63c27          	fsd	fa5,-8(a2)
800013ee:	fac59de3          	bne	a1,a2,800013a8 <mm_cb+0x224>
800013f2:	0e65                	addi	t3,t3,25
800013f4:	0c8f8f93          	addi	t6,t6,200
800013f8:	f89e6de3          	bltu	t3,s1,80001392 <mm_cb+0x20e>
800013fc:	f4442783          	lw	a5,-188(s0)
80001400:	0361                	addi	t1,t1,24
80001402:	9efa                	add	t4,t4,t5
80001404:	f6f36ee3          	bltu	t1,a5,80001380 <mm_cb+0x1fc>
80001408:	f4842783          	lw	a5,-184(s0)
8000140c:	00179813          	slli	a6,a5,0x1
80001410:	078e                	slli	a5,a5,0x3
80001412:	eef42423          	sw	a5,-280(s0)
80001416:	f3442783          	lw	a5,-204(s0)
8000141a:	7a0781e3          	beqz	a5,800023bc <mm_cb+0x1238>
8000141e:	401c                	lw	a5,0(s0)
80001420:	4018                	lw	a4,0(s0)
80001422:	f3042903          	lw	s2,-208(s0)
80001426:	0786                	slli	a5,a5,0x1
80001428:	97ba                	add	a5,a5,a4
8000142a:	079a                	slli	a5,a5,0x6
8000142c:	eaf42c23          	sw	a5,-328(s0)
80001430:	f1442783          	lw	a5,-236(s0)
80001434:	00371893          	slli	a7,a4,0x3
80001438:	6305                	lui	t1,0x1
8000143a:	0c078f13          	addi	t5,a5,192
8000143e:	eb142423          	sw	a7,-344(s0)
80001442:	4e01                	li	t3,0
80001444:	43e1                	li	t2,24
80001446:	42e5                	li	t0,25
80001448:	2c030313          	addi	t1,t1,704 # 12c0 <buflen.2802+0x1240>
8000144c:	06090f63          	beqz	s2,800014ca <mm_cb+0x346>
80001450:	027e5eb3          	divu	t4,t3,t2
80001454:	f3c42783          	lw	a5,-196(s0)
80001458:	84fa                	mv	s1,t5
8000145a:	4f81                	li	t6,0
8000145c:	02fe8eb3          	mul	t4,t4,a5
80001460:	f1c42783          	lw	a5,-228(s0)
80001464:	86a6                	mv	a3,s1
80001466:	025fd633          	divu	a2,t6,t0
8000146a:	9676                	add	a2,a2,t4
8000146c:	02660633          	mul	a2,a2,t1
80001470:	963e                	add	a2,a2,a5
80001472:	006605b3          	add	a1,a2,t1
80001476:	f4068793          	addi	a5,a3,-192
8000147a:	8732                	mv	a4,a2
8000147c:	0007b087          	fld	ft1,0(a5)
80001480:	0087b007          	fld	ft0,8(a5)
80001484:	2b88                	fld	fa0,16(a5)
80001486:	2f8c                	fld	fa1,24(a5)
80001488:	3390                	fld	fa2,32(a5)
8000148a:	3794                	fld	fa3,40(a5)
8000148c:	3b98                	fld	fa4,48(a5)
8000148e:	3f9c                	fld	fa5,56(a5)
80001490:	00173027          	fsd	ft1,0(a4)
80001494:	00073427          	fsd	ft0,8(a4)
80001498:	ab08                	fsd	fa0,16(a4)
8000149a:	af0c                	fsd	fa1,24(a4)
8000149c:	b310                	fsd	fa2,32(a4)
8000149e:	b714                	fsd	fa3,40(a4)
800014a0:	bb18                	fsd	fa4,48(a4)
800014a2:	bf1c                	fsd	fa5,56(a4)
800014a4:	04078793          	addi	a5,a5,64
800014a8:	04070713          	addi	a4,a4,64
800014ac:	fcf698e3          	bne	a3,a5,8000147c <mm_cb+0x2f8>
800014b0:	229c                	fld	fa5,0(a3)
800014b2:	0c860613          	addi	a2,a2,200
800014b6:	96c6                	add	a3,a3,a7
800014b8:	fef63c27          	fsd	fa5,-8(a2)
800014bc:	fac59de3          	bne	a1,a2,80001476 <mm_cb+0x2f2>
800014c0:	0fe5                	addi	t6,t6,25
800014c2:	0c848493          	addi	s1,s1,200
800014c6:	f92fede3          	bltu	t6,s2,80001460 <mm_cb+0x2dc>
800014ca:	eb842783          	lw	a5,-328(s0)
800014ce:	0e61                	addi	t3,t3,24
800014d0:	9f3e                	add	t5,t5,a5
800014d2:	f3442783          	lw	a5,-204(s0)
800014d6:	f6fe6be3          	bltu	t3,a5,8000144c <mm_cb+0x2c8>
800014da:	f3842703          	lw	a4,-200(s0)
800014de:	47e1                	li	a5,24
800014e0:	f4c42483          	lw	s1,-180(s0)
800014e4:	02f778b3          	remu	a7,a4,a5
800014e8:	f4842e83          	lw	t4,-184(s0)
800014ec:	f3042683          	lw	a3,-208(s0)
800014f0:	00249793          	slli	a5,s1,0x2
800014f4:	97a6                	add	a5,a5,s1
800014f6:	9876                	add	a6,a6,t4
800014f8:	00379c13          	slli	s8,a5,0x3
800014fc:	068e                	slli	a3,a3,0x3
800014fe:	00681793          	slli	a5,a6,0x6
80001502:	eef42623          	sw	a5,-276(s0)
80001506:	87b6                	mv	a5,a3
80001508:	f1442683          	lw	a3,-236(s0)
8000150c:	9526                	add	a0,a0,s1
8000150e:	f4442e03          	lw	t3,-188(s0)
80001512:	00449a93          	slli	s5,s1,0x4
80001516:	00549b93          	slli	s7,s1,0x5
8000151a:	ef042483          	lw	s1,-272(s0)
8000151e:	96be                	add	a3,a3,a5
80001520:	f0d42023          	sw	a3,-256(s0)
80001524:	ebc42683          	lw	a3,-324(s0)
80001528:	41c005b3          	neg	a1,t3
8000152c:	97a6                	add	a5,a5,s1
8000152e:	003e1313          	slli	t1,t3,0x3
80001532:	eaf42023          	sw	a5,-352(s0)
80001536:	00359793          	slli	a5,a1,0x3
8000153a:	969a                	add	a3,a3,t1
8000153c:	e8f42a23          	sw	a5,-364(s0)
80001540:	401c                	lw	a5,0(s0)
80001542:	f2d42423          	sw	a3,-216(s0)
80001546:	005e9693          	slli	a3,t4,0x5
8000154a:	eed42e23          	sw	a3,-260(s0)
8000154e:	00651693          	slli	a3,a0,0x6
80001552:	6605                	lui	a2,0x1
80001554:	0796                	slli	a5,a5,0x5
80001556:	e8d42c23          	sw	a3,-360(s0)
8000155a:	f2042683          	lw	a3,-224(s0)
8000155e:	ecf42023          	sw	a5,-320(s0)
80001562:	38860793          	addi	a5,a2,904 # 1388 <buflen.2802+0x1308>
80001566:	eaf42a23          	sw	a5,-332(s0)
8000156a:	47e5                	li	a5,25
8000156c:	00451c93          	slli	s9,a0,0x4
80001570:	00351b13          	slli	s6,a0,0x3
80001574:	02f6f533          	remu	a0,a3,a5
80001578:	00389793          	slli	a5,a7,0x3
8000157c:	ecf42623          	sw	a5,-308(s0)
80001580:	4799                	li	a5,6
80001582:	4715                	li	a4,5
80001584:	2c060d13          	addi	s10,a2,704
80001588:	8a62                	mv	s4,s8
8000158a:	f1142423          	sw	a7,-248(s0)
8000158e:	8c56                	mv	s8,s5
80001590:	f0042623          	sw	zero,-244(s0)
80001594:	8ae6                	mv	s5,s9
80001596:	02f8d7b3          	divu	a5,a7,a5
8000159a:	eaa42823          	sw	a0,-336(s0)
8000159e:	00179693          	slli	a3,a5,0x1
800015a2:	96be                	add	a3,a3,a5
800015a4:	0692                	slli	a3,a3,0x4
800015a6:	039787b3          	mul	a5,a5,s9
800015aa:	e8d42e23          	sw	a3,-356(s0)
800015ae:	03cd86b3          	mul	a3,s11,t3
800015b2:	eaf42623          	sw	a5,-340(s0)
800015b6:	02e55633          	divu	a2,a0,a4
800015ba:	00d487b3          	add	a5,s1,a3
800015be:	eaf42223          	sw	a5,-348(s0)
800015c2:	02e577b3          	remu	a5,a0,a4
800015c6:	00261593          	slli	a1,a2,0x2
800015ca:	962e                	add	a2,a2,a1
800015cc:	f4c42023          	sw	a2,-192(s0)
800015d0:	060e                	slli	a2,a2,0x3
800015d2:	f0c42223          	sw	a2,-252(s0)
800015d6:	ecf42423          	sw	a5,-312(s0)
800015da:	f3042783          	lw	a5,-208(s0)
800015de:	e399                	bnez	a5,800015e4 <mm_cb+0x460>
800015e0:	1890106f          	j	80002f68 <mm_cb+0x1de4>
800015e4:	f0c42703          	lw	a4,-244(s0)
800015e8:	47e1                	li	a5,24
800015ea:	f2842683          	lw	a3,-216(s0)
800015ee:	02f757b3          	divu	a5,a4,a5
800015f2:	eec42703          	lw	a4,-276(s0)
800015f6:	f0042c23          	sw	zero,-232(s0)
800015fa:	8cee                	mv	s9,s11
800015fc:	9736                	add	a4,a4,a3
800015fe:	eee42223          	sw	a4,-284(s0)
80001602:	ea442703          	lw	a4,-348(s0)
80001606:	f2e42223          	sw	a4,-220(s0)
8000160a:	ed842703          	lw	a4,-296(s0)
8000160e:	02e78733          	mul	a4,a5,a4
80001612:	f4e42c23          	sw	a4,-168(s0)
80001616:	f3c42703          	lw	a4,-196(s0)
8000161a:	02e787b3          	mul	a5,a5,a4
8000161e:	ecf42e23          	sw	a5,-292(s0)
80001622:	f4442783          	lw	a5,-188(s0)
80001626:	46078063          	beqz	a5,80001a86 <mm_cb+0x902>
8000162a:	f1842783          	lw	a5,-232(s0)
8000162e:	4765                	li	a4,25
80001630:	f1842823          	sw	s8,-240(s0)
80001634:	02e7d7b3          	divu	a5,a5,a4
80001638:	edc42703          	lw	a4,-292(s0)
8000163c:	ef742c23          	sw	s7,-264(s0)
80001640:	ed042c03          	lw	s8,-304(s0)
80001644:	ed442b83          	lw	s7,-300(s0)
80001648:	e9942623          	sw	s9,-372(s0)
8000164c:	4d81                	li	s11,0
8000164e:	ef642023          	sw	s6,-288(s0)
80001652:	ed442223          	sw	s4,-316(s0)
80001656:	e9542823          	sw	s5,-368(s0)
8000165a:	00e789b3          	add	s3,a5,a4
8000165e:	03a989b3          	mul	s3,s3,s10
80001662:	f4f42823          	sw	a5,-176(s0)
80001666:	f1c42783          	lw	a5,-228(s0)
8000166a:	99be                	add	s3,s3,a5
8000166c:	0c898713          	addi	a4,s3,200
80001670:	f2e42623          	sw	a4,-212(s0)
80001674:	eb442703          	lw	a4,-332(s0)
80001678:	01a987b3          	add	a5,s3,s10
8000167c:	8cbe                	mv	s9,a5
8000167e:	99ba                	add	s3,s3,a4
80001680:	47e1                	li	a5,24
80001682:	02fdd7b3          	divu	a5,s11,a5
80001686:	f3c42703          	lw	a4,-196(s0)
8000168a:	f2c42b03          	lw	s6,-212(s0)
8000168e:	02e784b3          	mul	s1,a5,a4
80001692:	f5842703          	lw	a4,-168(s0)
80001696:	97ba                	add	a5,a5,a4
80001698:	00379913          	slli	s2,a5,0x3
8000169c:	993e                	add	s2,s2,a5
8000169e:	f5042783          	lw	a5,-176(s0)
800016a2:	0926                	slli	s2,s2,0x9
800016a4:	995e                	add	s2,s2,s7
800016a6:	94be                	add	s1,s1,a5
800016a8:	03a484b3          	mul	s1,s1,s10
800016ac:	8aca                	mv	s5,s2
800016ae:	94e2                	add	s1,s1,s8
800016b0:	0c848a13          	addi	s4,s1,200
800016b4:	f38b0693          	addi	a3,s6,-200
800016b8:	8626                	mv	a2,s1
800016ba:	0086bf87          	fld	ft11,8(a3)
800016be:	0106bf07          	fld	ft10,16(a3)
800016c2:	0186be87          	fld	ft9,24(a3)
800016c6:	2280                	fld	fs0,0(a3)
800016c8:	329c                	fld	fa5,32(a3)
800016ca:	0c86bb87          	fld	fs7,200(a3)
800016ce:	0d06bb07          	fld	fs6,208(a3)
800016d2:	0d86ba87          	fld	fs5,216(a3)
800016d6:	0e06ba07          	fld	fs4,224(a3)
800016da:	36ec                	fld	fa1,232(a3)
800016dc:	1906bc07          	fld	fs8,400(a3)
800016e0:	1986b987          	fld	fs3,408(a3)
800016e4:	1a06b907          	fld	fs2,416(a3)
800016e8:	1a86b487          	fld	fs1,424(a3)
800016ec:	1b06bd87          	fld	fs11,432(a3)
800016f0:	2586b807          	fld	fa6,600(a3)
800016f4:	2606be07          	fld	ft8,608(a3)
800016f8:	2686b307          	fld	ft6,616(a3)
800016fc:	2706b087          	fld	ft1,624(a3)
80001700:	2786bd07          	fld	fs10,632(a3)
80001704:	23ff86d3          	fmv.d	fa3,ft11
80001708:	23ef0653          	fmv.d	fa2,ft10
8000170c:	23de8553          	fmv.d	fa0,ft9
80001710:	87b2                	mv	a5,a2
80001712:	01a605b3          	add	a1,a2,s10
80001716:	8756                	mv	a4,s5
80001718:	0c073187          	fld	ft3,192(a4)
8000171c:	18073007          	fld	ft0,384(a4)
80001720:	24073c87          	fld	fs9,576(a4)
80001724:	00073207          	fld	ft4,0(a4)
80001728:	0087bf87          	fld	ft11,8(a5)
8000172c:	0007b387          	fld	ft7,0(a5)
80001730:	0107b887          	fld	fa7,16(a5)
80001734:	0187b287          	fld	ft5,24(a5)
80001738:	0207bf07          	fld	ft10,32(a5)
8000173c:	42727743          	fmadd.d	fa4,ft4,ft7,fs0
80001740:	6bf276c3          	fmadd.d	fa3,ft4,ft11,fa3
80001744:	5a3f7143          	fmadd.d	ft2,ft10,ft3,fa1
80001748:	da0f7dc3          	fmadd.d	fs11,ft10,ft0,fs11
8000174c:	63127643          	fmadd.d	fa2,ft4,fa7,fa2
80001750:	52527543          	fmadd.d	fa0,ft4,ft5,fa0
80001754:	ba33fbc3          	fmadd.d	fs7,ft7,ft3,fs7
80001758:	7be27243          	fmadd.d	ft4,ft4,ft10,fa5
8000175c:	b23ffb43          	fmadd.d	fs6,ft11,ft3,fs6
80001760:	d39f7f43          	fmadd.d	ft10,ft10,fs9,fs10
80001764:	aa38fac3          	fmadd.d	fs5,fa7,ft3,fs5
80001768:	a232fa43          	fmadd.d	fs4,ft5,ft3,fs4
8000176c:	c203fc43          	fmadd.d	fs8,ft7,ft0,fs8
80001770:	9a0ff9c3          	fmadd.d	fs3,ft11,ft0,fs3
80001774:	8393f3c3          	fmadd.d	ft7,ft7,fs9,fa6
80001778:	9208f943          	fmadd.d	fs2,fa7,ft0,fs2
8000177c:	4a02f4c3          	fmadd.d	fs1,ft5,ft0,fs1
80001780:	e39ffe43          	fmadd.d	ft8,ft11,fs9,ft8
80001784:	0b92f2c3          	fmadd.d	ft5,ft5,fs9,ft1
80001788:	3398f8c3          	fmadd.d	fa7,fa7,fs9,ft6
8000178c:	270c                	fld	fa1,8(a4)
8000178e:	24873f87          	fld	ft11,584(a4)
80001792:	0c873187          	fld	ft3,200(a4)
80001796:	18873787          	fld	fa5,392(a4)
8000179a:	0d07b307          	fld	ft6,208(a5)
8000179e:	0d87b087          	fld	ft1,216(a5)
800017a2:	0c87be87          	fld	ft9,200(a5)
800017a6:	0e07b807          	fld	fa6,224(a5)
800017aa:	0e87bd07          	fld	fs10,232(a5)
800017ae:	e3f37e43          	fmadd.d	ft8,ft6,ft11,ft8
800017b2:	8bf0f8c3          	fmadd.d	fa7,ft1,ft11,fa7
800017b6:	23a5f243          	fmadd.d	ft4,fa1,fs10,ft4
800017ba:	73d5f743          	fmadd.d	fa4,fa1,ft9,fa4
800017be:	6a65f6c3          	fmadd.d	fa3,fa1,ft6,fa3
800017c2:	6215f643          	fmadd.d	fa2,fa1,ft1,fa2
800017c6:	5305f543          	fmadd.d	fa0,fa1,fa6,fa0
800017ca:	ba3efbc3          	fmadd.d	fs7,ft9,ft3,fs7
800017ce:	b2337b43          	fmadd.d	fs6,ft6,ft3,fs6
800017d2:	aa30fac3          	fmadd.d	fs5,ft1,ft3,fs5
800017d6:	a2387a43          	fmadd.d	fs4,fa6,ft3,fs4
800017da:	c2fefc43          	fmadd.d	fs8,ft9,fa5,fs8
800017de:	123d71c3          	fmadd.d	ft3,fs10,ft3,ft2
800017e2:	3bfefec3          	fmadd.d	ft9,ft9,ft11,ft7
800017e6:	9af379c3          	fmadd.d	fs3,ft6,fa5,fs3
800017ea:	92f0f943          	fmadd.d	fs2,ft1,fa5,fs2
800017ee:	4af874c3          	fmadd.d	fs1,fa6,fa5,fs1
800017f2:	dafd77c3          	fmadd.d	fa5,fs10,fa5,fs11
800017f6:	2bf87843          	fmadd.d	fa6,fa6,ft11,ft5
800017fa:	f3fd7d43          	fmadd.d	fs10,fs10,ft11,ft10
800017fe:	2b0c                	fld	fa1,16(a4)
80001800:	25073f07          	fld	ft10,592(a4)
80001804:	0d073107          	fld	ft2,208(a4)
80001808:	19073007          	fld	ft0,400(a4)
8000180c:	1b07bf87          	fld	ft11,432(a5)
80001810:	1907b387          	fld	ft7,400(a5)
80001814:	1987b307          	fld	ft6,408(a5)
80001818:	1a07b087          	fld	ft1,416(a5)
8000181c:	1a87b287          	fld	ft5,424(a5)
80001820:	d3effd43          	fmadd.d	fs10,ft11,ft10,fs10
80001824:	7275f743          	fmadd.d	fa4,fa1,ft7,fa4
80001828:	6a65f6c3          	fmadd.d	fa3,fa1,ft6,fa3
8000182c:	6215f643          	fmadd.d	fa2,fa1,ft1,fa2
80001830:	5255f543          	fmadd.d	fa0,fa1,ft5,fa0
80001834:	ba23fbc3          	fmadd.d	fs7,ft7,ft2,fs7
80001838:	23f5f5c3          	fmadd.d	fa1,fa1,ft11,ft4
8000183c:	b2237b43          	fmadd.d	fs6,ft6,ft2,fs6
80001840:	aa20fac3          	fmadd.d	fs5,ft1,ft2,fs5
80001844:	a222fa43          	fmadd.d	fs4,ft5,ft2,fs4
80001848:	c203fc43          	fmadd.d	fs8,ft7,ft0,fs8
8000184c:	1a2ff143          	fmadd.d	ft2,ft11,ft2,ft3
80001850:	9a0379c3          	fmadd.d	fs3,ft6,ft0,fs3
80001854:	9200f943          	fmadd.d	fs2,ft1,ft0,fs2
80001858:	e3e37343          	fmadd.d	ft6,ft6,ft10,ft8
8000185c:	8be0f0c3          	fmadd.d	ft1,ft1,ft10,fa7
80001860:	4a02f4c3          	fmadd.d	fs1,ft5,ft0,fs1
80001864:	ebe3f3c3          	fmadd.d	ft7,ft7,ft10,ft9
80001868:	7a0ff043          	fmadd.d	ft0,ft11,ft0,fa5
8000186c:	83e2f2c3          	fmadd.d	ft5,ft5,ft10,fa6
80001870:	2f00                	fld	fs0,24(a4)
80001872:	2587be87          	fld	ft9,600(a5)
80001876:	2707bf87          	fld	ft11,624(a5)
8000187a:	2607be07          	fld	ft8,608(a5)
8000187e:	2687b887          	fld	fa7,616(a5)
80001882:	2787b187          	fld	ft3,632(a5)
80001886:	0d873c87          	fld	fs9,216(a4)
8000188a:	19873d87          	fld	fs11,408(a4)
8000188e:	25873f07          	fld	ft10,600(a4)
80001892:	5a3475c3          	fmadd.d	fa1,fs0,ft3,fa1
80001896:	73d47743          	fmadd.d	fa4,fs0,ft9,fa4
8000189a:	3beef3c3          	fmadd.d	ft7,ft9,ft10,ft7
8000189e:	6bc476c3          	fmadd.d	fa3,fs0,ft8,fa3
800018a2:	63147643          	fmadd.d	fa2,fs0,fa7,fa2
800018a6:	53f47543          	fmadd.d	fa0,fs0,ft11,fa0
800018aa:	bb9efbc3          	fmadd.d	fs7,ft9,fs9,fs7
800018ae:	b39e7b43          	fmadd.d	fs6,ft8,fs9,fs6
800018b2:	ab98fac3          	fmadd.d	fs5,fa7,fs9,fs5
800018b6:	a39ffa43          	fmadd.d	fs4,ft11,fs9,fs4
800018ba:	c3befc43          	fmadd.d	fs8,ft9,fs11,fs8
800018be:	1391fcc3          	fmadd.d	fs9,ft3,fs9,ft2
800018c2:	9bbe79c3          	fmadd.d	fs3,ft8,fs11,fs3
800018c6:	93b8f943          	fmadd.d	fs2,fa7,fs11,fs2
800018ca:	33ee7e43          	fmadd.d	ft8,ft8,ft10,ft6
800018ce:	0be8f8c3          	fmadd.d	fa7,fa7,ft10,ft1
800018d2:	4bbff4c3          	fmadd.d	fs1,ft11,fs11,fs1
800018d6:	2beff0c3          	fmadd.d	ft1,ft11,ft10,ft5
800018da:	03b1fdc3          	fmadd.d	fs11,ft3,fs11,ft0
800018de:	d3e1ff43          	fmadd.d	ft10,ft3,ft10,fs10
800018e2:	26073807          	fld	fa6,608(a4)
800018e6:	02073207          	fld	ft4,32(a4)
800018ea:	0e073107          	fld	ft2,224(a4)
800018ee:	1a073007          	fld	ft0,416(a4)
800018f2:	3387b287          	fld	ft5,824(a5)
800018f6:	3407b407          	fld	fs0,832(a5)
800018fa:	3207b307          	fld	ft6,800(a5)
800018fe:	3287be87          	fld	ft9,808(a5)
80001902:	3307b187          	fld	ft3,816(a5)
80001906:	f3047fc3          	fmadd.d	ft11,fs0,fa6,ft10
8000190a:	72627743          	fmadd.d	fa4,ft4,ft6,fa4
8000190e:	6bd276c3          	fmadd.d	fa3,ft4,ft9,fa3
80001912:	62327643          	fmadd.d	fa2,ft4,ft3,fa2
80001916:	52527543          	fmadd.d	fa0,ft4,ft5,fa0
8000191a:	ba237bc3          	fmadd.d	fs7,ft6,ft2,fs7
8000191e:	5a827243          	fmadd.d	ft4,ft4,fs0,fa1
80001922:	b22efb43          	fmadd.d	fs6,ft9,ft2,fs6
80001926:	aa21fac3          	fmadd.d	fs5,ft3,ft2,fs5
8000192a:	a222fa43          	fmadd.d	fs4,ft5,ft2,fs4
8000192e:	c2037c43          	fmadd.d	fs8,ft6,ft0,fs8
80001932:	9a0ef9c3          	fmadd.d	fs3,ft9,ft0,fs3
80001936:	9201f943          	fmadd.d	fs2,ft3,ft0,fs2
8000193a:	4a02f4c3          	fmadd.d	fs1,ft5,ft0,fs1
8000193e:	3b037343          	fmadd.d	ft6,ft6,fa6,ft7
80001942:	da047043          	fmadd.d	ft0,fs0,ft0,fs11
80001946:	e30efec3          	fmadd.d	ft9,ft9,fa6,ft8
8000194a:	8b01f1c3          	fmadd.d	ft3,ft3,fa6,fa7
8000194e:	0b02f0c3          	fmadd.d	ft1,ft5,fa6,ft1
80001952:	ca247143          	fmadd.d	ft2,fs0,ft2,fs9
80001956:	371c                	fld	fa5,40(a4)
80001958:	376c                	fld	fa1,232(a4)
8000195a:	1a873d87          	fld	fs11,424(a4)
8000195e:	26873f07          	fld	ft10,616(a4)
80001962:	3e87b387          	fld	ft7,1000(a5)
80001966:	3f07be07          	fld	ft8,1008(a5)
8000196a:	3f87b887          	fld	fa7,1016(a5)
8000196e:	4007b287          	fld	ft5,1024(a5)
80001972:	4087bd07          	fld	fs10,1032(a5)
80001976:	4b078793          	addi	a5,a5,1200
8000197a:	6bc7f6c3          	fmadd.d	fa3,fa5,ft8,fa3
8000197e:	b2be7b43          	fmadd.d	fs6,ft8,fa1,fs6
80001982:	9bbe79c3          	fmadd.d	fs3,ft8,fs11,fs3
80001986:	7277f443          	fmadd.d	fs0,fa5,ft7,fa4
8000198a:	6317f643          	fmadd.d	fa2,fa5,fa7,fa2
8000198e:	5257f543          	fmadd.d	fa0,fa5,ft5,fa0
80001992:	bab3fbc3          	fmadd.d	fs7,ft7,fa1,fs7
80001996:	23a7f7c3          	fmadd.d	fa5,fa5,fs10,ft4
8000199a:	aab8fac3          	fmadd.d	fs5,fa7,fa1,fs5
8000199e:	a2b2fa43          	fmadd.d	fs4,ft5,fa1,fs4
800019a2:	c3b3fc43          	fmadd.d	fs8,ft7,fs11,fs8
800019a6:	12bd75c3          	fmadd.d	fa1,fs10,fa1,ft2
800019aa:	93b8f943          	fmadd.d	fs2,fa7,fs11,fs2
800019ae:	4bb2f4c3          	fmadd.d	fs1,ft5,fs11,fs1
800019b2:	33e3f843          	fmadd.d	fa6,ft7,ft10,ft6
800019b6:	03bd7dc3          	fmadd.d	fs11,fs10,fs11,ft0
800019ba:	ebee7e43          	fmadd.d	ft8,ft8,ft10,ft9
800019be:	1be8f343          	fmadd.d	ft6,fa7,ft10,ft3
800019c2:	0be2f0c3          	fmadd.d	ft1,ft5,ft10,ft1
800019c6:	fbed7d43          	fmadd.d	fs10,fs10,ft10,ft11
800019ca:	03070713          	addi	a4,a4,48
800019ce:	d4b795e3          	bne	a5,a1,80001718 <mm_cb+0x594>
800019d2:	a280                	fsd	fs0,0(a3)
800019d4:	a694                	fsd	fa3,8(a3)
800019d6:	aa90                	fsd	fa2,16(a3)
800019d8:	ae88                	fsd	fa0,24(a3)
800019da:	b29c                	fsd	fa5,32(a3)
800019dc:	0d76b427          	fsd	fs7,200(a3)
800019e0:	0d66b827          	fsd	fs6,208(a3)
800019e4:	0d56bc27          	fsd	fs5,216(a3)
800019e8:	0f46b027          	fsd	fs4,224(a3)
800019ec:	b6ec                	fsd	fa1,232(a3)
800019ee:	1986b827          	fsd	fs8,400(a3)
800019f2:	1936bc27          	fsd	fs3,408(a3)
800019f6:	1b26b027          	fsd	fs2,416(a3)
800019fa:	1a96b427          	fsd	fs1,424(a3)
800019fe:	1bb6b827          	fsd	fs11,432(a3)
80001a02:	2506bc27          	fsd	fa6,600(a3)
80001a06:	27c6b027          	fsd	ft8,608(a3)
80001a0a:	2666b427          	fsd	ft6,616(a3)
80001a0e:	2616b827          	fsd	ft1,624(a3)
80001a12:	27a6bc27          	fsd	fs10,632(a3)
80001a16:	02860613          	addi	a2,a2,40
80001a1a:	02868693          	addi	a3,a3,40
80001a1e:	c8ca1ee3          	bne	s4,a2,800016ba <mm_cb+0x536>
80001a22:	47e5                	li	a5,25
80001a24:	88da                	mv	a7,s6
80001a26:	86d6                	mv	a3,s5
80001a28:	c03e                	sw	a5,0(sp)
80001a2a:	4865                	li	a6,25
80001a2c:	87d2                	mv	a5,s4
80001a2e:	4761                	li	a4,24
80001a30:	4661                	li	a2,24
80001a32:	4581                	li	a1,0
80001a34:	4511                	li	a0,4
80001a36:	320b0b13          	addi	s6,s6,800
80001a3a:	e0eff0ef          	jal	ra,80001048 <mm_naive>
80001a3e:	300a8a93          	addi	s5,s5,768
80001a42:	c76999e3          	bne	s3,s6,800016b4 <mm_cb+0x530>
80001a46:	6685                	lui	a3,0x1
80001a48:	47e5                	li	a5,25
80001a4a:	20068693          	addi	a3,a3,512 # 1200 <buflen.2802+0x1180>
80001a4e:	c03e                	sw	a5,0(sp)
80001a50:	88e6                	mv	a7,s9
80001a52:	87a6                	mv	a5,s1
80001a54:	4865                	li	a6,25
80001a56:	4761                	li	a4,24
80001a58:	96ca                	add	a3,a3,s2
80001a5a:	4661                	li	a2,24
80001a5c:	45e5                	li	a1,25
80001a5e:	4501                	li	a0,0
80001a60:	de8ff0ef          	jal	ra,80001048 <mm_naive>
80001a64:	f4442783          	lw	a5,-188(s0)
80001a68:	0de1                	addi	s11,s11,24
80001a6a:	c0fdebe3          	bltu	s11,a5,80001680 <mm_cb+0x4fc>
80001a6e:	f1042c03          	lw	s8,-240(s0)
80001a72:	ef842b83          	lw	s7,-264(s0)
80001a76:	ee042b03          	lw	s6,-288(s0)
80001a7a:	ec442a03          	lw	s4,-316(s0)
80001a7e:	e9042a83          	lw	s5,-368(s0)
80001a82:	e8c42c83          	lw	s9,-372(s0)
80001a86:	f2442783          	lw	a5,-220(s0)
80001a8a:	f4442703          	lw	a4,-188(s0)
80001a8e:	0c878e13          	addi	t3,a5,200
80001a92:	f3842783          	lw	a5,-200(s0)
80001a96:	12f768e3          	bltu	a4,a5,800023c6 <mm_cb+0x1242>
80001a9a:	f1842783          	lw	a5,-232(s0)
80001a9e:	f3042703          	lw	a4,-208(s0)
80001aa2:	f3c42223          	sw	t3,-220(s0)
80001aa6:	07e5                	addi	a5,a5,25
80001aa8:	f0f42c23          	sw	a5,-232(s0)
80001aac:	b6e7ebe3          	bltu	a5,a4,80001622 <mm_cb+0x49e>
80001ab0:	8de6                	mv	s11,s9
80001ab2:	f0042703          	lw	a4,-256(s0)
80001ab6:	eb842783          	lw	a5,-328(s0)
80001aba:	97ba                	add	a5,a5,a4
80001abc:	ecf42e23          	sw	a5,-292(s0)
80001ac0:	f3042703          	lw	a4,-208(s0)
80001ac4:	f2042783          	lw	a5,-224(s0)
80001ac8:	68f760e3          	bltu	a4,a5,80002948 <mm_cb+0x17c4>
80001acc:	edc42703          	lw	a4,-292(s0)
80001ad0:	f0c42783          	lw	a5,-244(s0)
80001ad4:	f0e42023          	sw	a4,-256(s0)
80001ad8:	ee442703          	lw	a4,-284(s0)
80001adc:	07e1                	addi	a5,a5,24
80001ade:	f0f42623          	sw	a5,-244(s0)
80001ae2:	f2e42423          	sw	a4,-216(s0)
80001ae6:	f3442703          	lw	a4,-204(s0)
80001aea:	aee7e8e3          	bltu	a5,a4,800015da <mm_cb+0x456>
80001aee:	ef442783          	lw	a5,-268(s0)
80001af2:	f3442703          	lw	a4,-204(s0)
80001af6:	7af77d63          	bleu	a5,a4,800022b0 <mm_cb+0x112c>
80001afa:	f2042783          	lw	a5,-224(s0)
80001afe:	7a078963          	beqz	a5,800022b0 <mm_cb+0x112c>
80001b02:	ef442783          	lw	a5,-268(s0)
80001b06:	4661                	li	a2,24
80001b08:	f4c42583          	lw	a1,-180(s0)
80001b0c:	02c7f633          	remu	a2,a5,a2
80001b10:	401c                	lw	a5,0(s0)
80001b12:	f4842803          	lw	a6,-184(s0)
80001b16:	00259713          	slli	a4,a1,0x2
80001b1a:	00379493          	slli	s1,a5,0x3
80001b1e:	00179693          	slli	a3,a5,0x1
80001b22:	00159793          	slli	a5,a1,0x1
80001b26:	97ae                	add	a5,a5,a1
80001b28:	00379313          	slli	t1,a5,0x3
80001b2c:	00479a13          	slli	s4,a5,0x4
80001b30:	079a                	slli	a5,a5,0x6
80001b32:	eaf42423          	sw	a5,-344(s0)
80001b36:	00581793          	slli	a5,a6,0x5
80001b3a:	eef42a23          	sw	a5,-268(s0)
80001b3e:	401c                	lw	a5,0(s0)
80001b40:	972e                	add	a4,a4,a1
80001b42:	00371a93          	slli	s5,a4,0x3
80001b46:	0796                	slli	a5,a5,0x5
80001b48:	ef042703          	lw	a4,-272(s0)
80001b4c:	eef42c23          	sw	a5,-264(s0)
80001b50:	f3442783          	lw	a5,-204(s0)
80001b54:	00042883          	lw	a7,0(s0)
80001b58:	f0e42223          	sw	a4,-252(s0)
80001b5c:	00381513          	slli	a0,a6,0x3
80001b60:	96c6                	add	a3,a3,a7
80001b62:	068e                	slli	a3,a3,0x3
80001b64:	ead42623          	sw	a3,-340(s0)
80001b68:	00559e13          	slli	t3,a1,0x5
80001b6c:	0892                	slli	a7,a7,0x4
80001b6e:	00459b13          	slli	s6,a1,0x4
80001b72:	89f2                	mv	s3,t3
80001b74:	eca42a23          	sw	a0,-300(s0)
80001b78:	8e1a                	mv	t3,t1
80001b7a:	ec942823          	sw	s1,-304(s0)
80001b7e:	02f48733          	mul	a4,s1,a5
80001b82:	ffc67693          	andi	a3,a2,-4
80001b86:	8e15                	sub	a2,a2,a3
80001b88:	ecc42223          	sw	a2,-316(s0)
80001b8c:	f1442603          	lw	a2,-236(s0)
80001b90:	8356                	mv	t1,s5
80001b92:	ed142623          	sw	a7,-308(s0)
80001b96:	00359d93          	slli	s11,a1,0x3
80001b9a:	f0042c23          	sw	zero,-232(s0)
80001b9e:	f2d42423          	sw	a3,-216(s0)
80001ba2:	9732                	add	a4,a4,a2
80001ba4:	f0e42423          	sw	a4,-248(s0)
80001ba8:	02d50733          	mul	a4,a0,a3
80001bac:	8ada                	mv	s5,s6
80001bae:	02f507b3          	mul	a5,a0,a5
80001bb2:	ece42023          	sw	a4,-320(s0)
80001bb6:	ebc42703          	lw	a4,-324(s0)
80001bba:	97ba                	add	a5,a5,a4
80001bbc:	eaf42a23          	sw	a5,-332(s0)
80001bc0:	02d487b3          	mul	a5,s1,a3
80001bc4:	eaf42e23          	sw	a5,-324(s0)
80001bc8:	f3842783          	lw	a5,-200(s0)
80001bcc:	6a078d63          	beqz	a5,80002286 <mm_cb+0x1102>
80001bd0:	f1842703          	lw	a4,-232(s0)
80001bd4:	f2042783          	lw	a5,-224(s0)
80001bd8:	8f99                	sub	a5,a5,a4
80001bda:	f2f42223          	sw	a5,-220(s0)
80001bde:	4765                	li	a4,25
80001be0:	00f77563          	bleu	a5,a4,80001bea <mm_cb+0xa66>
80001be4:	47e5                	li	a5,25
80001be6:	f2f42223          	sw	a5,-220(s0)
80001bea:	f2442703          	lw	a4,-220(s0)
80001bee:	4695                	li	a3,5
80001bf0:	f0842603          	lw	a2,-248(s0)
80001bf4:	02d757b3          	divu	a5,a4,a3
80001bf8:	ebc42583          	lw	a1,-324(s0)
80001bfc:	891a                	mv	s2,t1
80001bfe:	f0042823          	sw	zero,-240(s0)
80001c02:	95b2                	add	a1,a1,a2
80001c04:	eab42c23          	sw	a1,-328(s0)
80001c08:	eb442583          	lw	a1,-332(s0)
80001c0c:	84f2                	mv	s1,t3
80001c0e:	eeb42e23          	sw	a1,-260(s0)
80001c12:	f0442583          	lw	a1,-252(s0)
80001c16:	f2b42623          	sw	a1,-212(s0)
80001c1a:	02d77733          	remu	a4,a4,a3
80001c1e:	f0e42623          	sw	a4,-244(s0)
80001c22:	00279713          	slli	a4,a5,0x2
80001c26:	00f70d33          	add	s10,a4,a5
80001c2a:	41a007b3          	neg	a5,s10
80001c2e:	078e                	slli	a5,a5,0x3
80001c30:	ecf42c23          	sw	a5,-296(s0)
80001c34:	ed042783          	lw	a5,-304(s0)
80001c38:	003d1713          	slli	a4,s10,0x3
80001c3c:	00e606b3          	add	a3,a2,a4
80001c40:	8f99                	sub	a5,a5,a4
80001c42:	ecf42e23          	sw	a5,-292(s0)
80001c46:	ecc42783          	lw	a5,-308(s0)
80001c4a:	ece42423          	sw	a4,-312(s0)
80001c4e:	ead42823          	sw	a3,-336(s0)
80001c52:	8f99                	sub	a5,a5,a4
80001c54:	eef42023          	sw	a5,-288(s0)
80001c58:	eac42783          	lw	a5,-340(s0)
80001c5c:	836a                	mv	t1,s10
80001c5e:	8f99                	sub	a5,a5,a4
80001c60:	eef42223          	sw	a5,-284(s0)
80001c64:	f1042703          	lw	a4,-240(s0)
80001c68:	f3842783          	lw	a5,-200(s0)
80001c6c:	8f99                	sub	a5,a5,a4
80001c6e:	f4f42023          	sw	a5,-192(s0)
80001c72:	4761                	li	a4,24
80001c74:	00f77563          	bleu	a5,a4,80001c7e <mm_cb+0xafa>
80001c78:	47e1                	li	a5,24
80001c7a:	f4f42023          	sw	a5,-192(s0)
80001c7e:	f2842783          	lw	a5,-216(s0)
80001c82:	5a078063          	beqz	a5,80002222 <mm_cb+0x109e>
80001c86:	ed442783          	lw	a5,-300(s0)
80001c8a:	efc42b83          	lw	s7,-260(s0)
80001c8e:	f4042703          	lw	a4,-192(s0)
80001c92:	f2c42603          	lw	a2,-212(s0)
80001c96:	01778cb3          	add	s9,a5,s7
80001c9a:	01978c33          	add	s8,a5,s9
80001c9e:	01878d33          	add	s10,a5,s8
80001ca2:	4799                	li	a5,6
80001ca4:	02f757b3          	divu	a5,a4,a5
80001ca8:	00371693          	slli	a3,a4,0x3
80001cac:	eed42423          	sw	a3,-280(s0)
80001cb0:	ec842683          	lw	a3,-312(s0)
80001cb4:	eb042e03          	lw	t3,-336(s0)
80001cb8:	f4042223          	sw	zero,-188(s0)
80001cbc:	96b2                	add	a3,a3,a2
80001cbe:	f0d42023          	sw	a3,-256(s0)
80001cc2:	00179b13          	slli	s6,a5,0x1
80001cc6:	9b3e                	add	s6,s6,a5
80001cc8:	034787b3          	mul	a5,a5,s4
80001ccc:	0b12                	slli	s6,s6,0x4
80001cce:	eef42623          	sw	a5,-276(s0)
80001cd2:	4e030b63          	beqz	t1,800021c8 <mm_cb+0x1044>
80001cd6:	ee842783          	lw	a5,-280(s0)
80001cda:	efc42823          	sw	t3,-272(s0)
80001cde:	f2c42383          	lw	t2,-212(s0)
80001ce2:	017782b3          	add	t0,a5,s7
80001ce6:	ed842783          	lw	a5,-296(s0)
80001cea:	017b0fb3          	add	t6,s6,s7
80001cee:	4081                	li	ra,0
80001cf0:	01c78f33          	add	t5,a5,t3
80001cf4:	edc42783          	lw	a5,-292(s0)
80001cf8:	01c78eb3          	add	t4,a5,t3
80001cfc:	ee042783          	lw	a5,-288(s0)
80001d00:	01c788b3          	add	a7,a5,t3
80001d04:	ee442783          	lw	a5,-284(s0)
80001d08:	01c78833          	add	a6,a5,t3
80001d0c:	eec42e03          	lw	t3,-276(s0)
80001d10:	879e                	mv	a5,t2
80001d12:	000f3a87          	fld	fs5,0(t5)
80001d16:	008f3f07          	fld	ft10,8(t5)
80001d1a:	010f3e07          	fld	ft8,16(t5)
80001d1e:	018f3e87          	fld	ft9,24(t5)
80001d22:	020f3687          	fld	fa3,32(t5)
80001d26:	000eb887          	fld	fa7,0(t4)
80001d2a:	008ebb07          	fld	fs6,8(t4)
80001d2e:	010eba07          	fld	fs4,16(t4)
80001d32:	018eb987          	fld	fs3,24(t4)
80001d36:	020eb807          	fld	fa6,32(t4)
80001d3a:	0008b907          	fld	fs2,0(a7)
80001d3e:	0088b487          	fld	fs1,8(a7)
80001d42:	0108b407          	fld	fs0,16(a7)
80001d46:	0188bf87          	fld	ft11,24(a7)
80001d4a:	0208bb87          	fld	fs7,32(a7)
80001d4e:	00083287          	fld	ft5,0(a6)
80001d52:	00883187          	fld	ft3,8(a6)
80001d56:	01083087          	fld	ft1,16(a6)
80001d5a:	01883507          	fld	fa0,24(a6)
80001d5e:	02083787          	fld	fa5,32(a6)
80001d62:	37fbf363          	bleu	t6,s7,800020c8 <mm_cb+0xf44>
80001d66:	22948053          	fmv.d	ft0,fs1
80001d6a:	23ff8cd3          	fmv.d	fs9,ft11
80001d6e:	22528c53          	fmv.d	fs8,ft5
80001d72:	223184d3          	fmv.d	fs1,ft3
80001d76:	22a50fd3          	fmv.d	ft11,fa0
80001d7a:	235a8753          	fmv.d	fa4,fs5
80001d7e:	23ef0653          	fmv.d	fa2,ft10
80001d82:	23ce05d3          	fmv.d	fa1,ft8
80001d86:	236b0253          	fmv.d	ft4,fs6
80001d8a:	23398153          	fmv.d	ft2,fs3
80001d8e:	23290dd3          	fmv.d	fs11,fs2
80001d92:	231882d3          	fmv.d	ft5,fa7
80001d96:	234a01d3          	fmv.d	ft3,fs4
80001d9a:	23de8553          	fmv.d	fa0,ft9
80001d9e:	85ea                	mv	a1,s10
80001da0:	8662                	mv	a2,s8
80001da2:	86e6                	mv	a3,s9
80001da4:	875e                	mv	a4,s7
80001da6:	0005bf07          	fld	ft10,0(a1) # ffffe000 <__global_pointer$+0x7fff8bb8>
80001daa:	00073e87          	fld	ft9,0(a4)
80001dae:	0006b387          	fld	ft7,0(a3)
80001db2:	00063307          	fld	ft6,0(a2)
80001db6:	0087bb07          	fld	fs6,8(a5)
80001dba:	0187ba07          	fld	fs4,24(a5)
80001dbe:	0007b907          	fld	fs2,0(a5)
80001dc2:	0107ba87          	fld	fs5,16(a5)
80001dc6:	636ef643          	fmadd.d	fa2,ft9,fs6,fa2
80001dca:	732ef743          	fmadd.d	fa4,ft9,fs2,fa4
80001dce:	ca6a7cc3          	fmadd.d	fs9,fs4,ft6,fs9
80001dd2:	4beb74c3          	fmadd.d	fs1,fs6,ft10,fs1
80001dd6:	227b7243          	fmadd.d	ft4,fs6,ft7,ft4
80001dda:	026b7043          	fmadd.d	ft0,fs6,ft6,ft0
80001dde:	0207b987          	fld	fs3,32(a5)
80001de2:	00fd8533          	add	a0,s11,a5
80001de6:	426afd43          	fmadd.d	fs10,fs5,ft6,fs0
80001dea:	5b5ef5c3          	fmadd.d	fa1,ft9,fs5,fa1
80001dee:	0beaf443          	fmadd.d	fs0,fs5,ft10,ft1
80001df2:	1a7af1c3          	fmadd.d	ft3,fs5,ft7,ft3
80001df6:	0086be07          	fld	ft8,8(a3)
80001dfa:	00863887          	fld	fa7,8(a2)
80001dfe:	00853b07          	fld	fs6,8(a0)
80001e02:	da697dc3          	fmadd.d	fs11,fs2,ft6,fs11
80001e06:	fbea7fc3          	fmadd.d	ft11,fs4,ft10,ft11
80001e0a:	ba69f343          	fmadd.d	ft6,fs3,ft6,fs7
80001e0e:	534ef543          	fmadd.d	fa0,ft9,fs4,fa0
80001e12:	00053b87          	fld	fs7,0(a0)
80001e16:	6b3efec3          	fmadd.d	ft9,ft9,fs3,fa3
80001e1a:	2a7972c3          	fmadd.d	ft5,fs2,ft7,ft5
80001e1e:	127a7143          	fmadd.d	ft2,fs4,ft7,ft2
80001e22:	c3e97943          	fmadd.d	fs2,fs2,ft10,fs8
80001e26:	01853a07          	fld	fs4,24(a0)
80001e2a:	7be9fc43          	fmadd.d	fs8,fs3,ft10,fa5
80001e2e:	8279f3c3          	fmadd.d	ft7,fs3,ft7,fa6
80001e32:	0085bf07          	fld	ft10,8(a1)
80001e36:	00873807          	fld	fa6,8(a4)
80001e3a:	01053a87          	fld	fs5,16(a0)
80001e3e:	23cb7243          	fmadd.d	ft4,fs6,ft8,ft4
80001e42:	737877c3          	fmadd.d	fa5,fa6,fs7,fa4
80001e46:	636876c3          	fmadd.d	fa3,fa6,fs6,fa2
80001e4a:	cb1a7743          	fmadd.d	fa4,fs4,fa7,fs9
80001e4e:	031b7043          	fmadd.d	ft0,fs6,fa7,ft0
80001e52:	4beb7b43          	fmadd.d	fs6,fs6,ft10,fs1
80001e56:	02053987          	fld	fs3,32(a0)
80001e5a:	d31af643          	fmadd.d	fa2,fs5,fa7,fs10
80001e5e:	00fa8533          	add	a0,s5,a5
80001e62:	5b5875c3          	fmadd.d	fa1,fa6,fs5,fa1
80001e66:	1bcaf1c3          	fmadd.d	ft3,fs5,ft8,ft3
80001e6a:	43eafac3          	fmadd.d	fs5,fs5,ft10,fs0
80001e6e:	2504                	fld	fs1,8(a0)
80001e70:	eb387ec3          	fmadd.d	ft9,fa6,fs3,ft9
80001e74:	db1bf0c3          	fmadd.d	ft1,fs7,fa7,fs11
80001e78:	53487543          	fmadd.d	fa0,fa6,fs4,fa0
80001e7c:	3319f8c3          	fmadd.d	fa7,fs3,fa7,ft6
80001e80:	01073807          	fld	fa6,16(a4)
80001e84:	01063307          	fld	ft6,16(a2)
80001e88:	2bcbf2c3          	fmadd.d	ft5,fs7,ft8,ft5
80001e8c:	13ca7143          	fmadd.d	ft2,fs4,ft8,ft2
80001e90:	93ebfbc3          	fmadd.d	fs7,fs7,ft10,fs2
80001e94:	3bc9fe43          	fmadd.d	ft8,fs3,ft8,ft7
80001e98:	fbea7a43          	fmadd.d	fs4,fs4,ft10,ft11
80001e9c:	0106b387          	fld	ft7,16(a3)
80001ea0:	01853f87          	fld	ft11,24(a0)
80001ea4:	c3e9f9c3          	fmadd.d	fs3,fs3,ft10,fs8
80001ea8:	0105bc07          	fld	fs8,16(a1)
80001eac:	00053907          	fld	fs2,0(a0)
80001eb0:	2900                	fld	fs0,16(a0)
80001eb2:	6a9876c3          	fmadd.d	fa3,fa6,fs1,fa3
80001eb6:	2274f243          	fmadd.d	ft4,fs1,ft7,ft4
80001eba:	0264f043          	fmadd.d	ft0,fs1,ft6,ft0
80001ebe:	726ff743          	fmadd.d	fa4,ft11,ft6,fa4
80001ec2:	b384f4c3          	fmadd.d	fs1,fs1,fs8,fs6
80001ec6:	02053f07          	fld	ft10,32(a0)
80001eca:	7b2877c3          	fmadd.d	fa5,fa6,fs2,fa5
80001ece:	00978533          	add	a0,a5,s1
80001ed2:	5a8875c3          	fmadd.d	fa1,fa6,fs0,fa1
80001ed6:	1a7471c3          	fmadd.d	ft3,fs0,ft7,ft3
80001eda:	62647643          	fmadd.d	fa2,fs0,ft6,fa2
80001ede:	ab847443          	fmadd.d	fs0,fs0,fs8,fs5
80001ee2:	00853b07          	fld	fs6,8(a0)
80001ee6:	01053a87          	fld	fs5,16(a0)
80001eea:	53f87543          	fmadd.d	fa0,fa6,ft11,fa0
80001eee:	2a7972c3          	fmadd.d	ft5,fs2,ft7,ft5
80001ef2:	ebe87843          	fmadd.d	fa6,fa6,ft10,ft9
80001ef6:	127ff143          	fmadd.d	ft2,ft11,ft7,ft2
80001efa:	01873e87          	fld	ft9,24(a4)
80001efe:	e27f73c3          	fmadd.d	ft7,ft10,ft7,ft8
80001f02:	a38fffc3          	fmadd.d	ft11,ft11,fs8,fs4
80001f06:	0a6970c3          	fmadd.d	ft1,fs2,ft6,ft1
80001f0a:	01853a07          	fld	fs4,24(a0)
80001f0e:	8a6f7343          	fmadd.d	ft6,ft10,ft6,fa7
80001f12:	bb897943          	fmadd.d	fs2,fs2,fs8,fs7
80001f16:	9b8f7f43          	fmadd.d	ft10,ft10,fs8,fs3
80001f1a:	00053b87          	fld	fs7,0(a0)
80001f1e:	02053987          	fld	fs3,32(a0)
80001f22:	0185bc87          	fld	fs9,24(a1)
80001f26:	01863d07          	fld	fs10,24(a2)
80001f2a:	0186bd87          	fld	fs11,24(a3)
80001f2e:	4b9b74c3          	fmadd.d	fs1,fs6,fs9,fs1
80001f32:	73aa7743          	fmadd.d	fa4,fs4,fs10,fa4
80001f36:	7b7ef7c3          	fmadd.d	fa5,ft9,fs7,fa5
80001f3a:	00f98533          	add	a0,s3,a5
80001f3e:	63aaf643          	fmadd.d	fa2,fs5,fs10,fa2
80001f42:	5b5ef5c3          	fmadd.d	fa1,ft9,fs5,fa1
80001f46:	1bbaf1c3          	fmadd.d	ft3,fs5,fs11,ft3
80001f4a:	439afac3          	fmadd.d	fs5,fs5,fs9,fs0
80001f4e:	0205b887          	fld	fa7,32(a1)
80001f52:	939bf943          	fmadd.d	fs2,fs7,fs9,fs2
80001f56:	6b6ef6c3          	fmadd.d	fa3,ft9,fs6,fa3
80001f5a:	534ef543          	fmadd.d	fa0,ft9,fs4,fa0
80001f5e:	2bbbf2c3          	fmadd.d	ft5,fs7,fs11,ft5
80001f62:	23bb7243          	fmadd.d	ft4,fs6,fs11,ft4
80001f66:	13ba7143          	fmadd.d	ft2,fs4,fs11,ft2
80001f6a:	0babf0c3          	fmadd.d	ft1,fs7,fs10,ft1
80001f6e:	03ab7043          	fmadd.d	ft0,fs6,fs10,ft0
80001f72:	00853b87          	fld	fs7,8(a0)
80001f76:	33a9fd43          	fmadd.d	fs10,fs3,fs10,ft6
80001f7a:	fb9a7a43          	fmadd.d	fs4,fs4,fs9,ft11
80001f7e:	02063307          	fld	ft6,32(a2)
80001f82:	01853f87          	fld	ft11,24(a0)
80001f86:	00053b07          	fld	fs6,0(a0)
80001f8a:	833ef843          	fmadd.d	fa6,ft9,fs3,fa6
80001f8e:	3bb9fdc3          	fmadd.d	fs11,fs3,fs11,ft7
80001f92:	02073e87          	fld	ft9,32(a4)
80001f96:	f399f9c3          	fmadd.d	fs3,fs3,fs9,ft10
80001f9a:	2900                	fld	fs0,16(a0)
80001f9c:	726ffcc3          	fmadd.d	fs9,ft11,ft6,fa4
80001fa0:	4b1bf743          	fmadd.d	fa4,fs7,fa7,fs1
80001fa4:	0206b387          	fld	ft7,32(a3)
80001fa8:	7b6ef7c3          	fmadd.d	fa5,ft9,fs6,fa5
80001fac:	02053e07          	fld	ft8,32(a0)
80001fb0:	62647c43          	fmadd.d	fs8,fs0,ft6,fa2
80001fb4:	ab147643          	fmadd.d	fa2,fs0,fa7,fs5
80001fb8:	01278533          	add	a0,a5,s2
80001fbc:	6b7ef6c3          	fmadd.d	fa3,ft9,fs7,fa3
80001fc0:	227bf243          	fmadd.d	ft4,fs7,ft7,ft4
80001fc4:	026bf043          	fmadd.d	ft0,fs7,ft6,ft0
80001fc8:	0a6b70c3          	fmadd.d	ft1,fs6,ft6,ft1
80001fcc:	5a8ef5c3          	fmadd.d	fa1,ft9,fs0,fa1
80001fd0:	53fef543          	fmadd.d	fa0,ft9,ft11,fa0
80001fd4:	2a7b72c3          	fmadd.d	ft5,fs6,ft7,ft5
80001fd8:	83cefec3          	fmadd.d	ft9,ft9,ft8,fa6
80001fdc:	1a7471c3          	fmadd.d	ft3,fs0,ft7,ft3
80001fe0:	127ff143          	fmadd.d	ft2,ft11,ft7,ft2
80001fe4:	d26e7d43          	fmadd.d	fs10,ft8,ft6,fs10
80001fe8:	da7e73c3          	fmadd.d	ft7,ft8,ft7,fs11
80001fec:	931b7b43          	fmadd.d	fs6,fs6,fa7,fs2
80001ff0:	a31ffa43          	fmadd.d	fs4,ft11,fa7,fs4
80001ff4:	00053907          	fld	fs2,0(a0)
80001ff8:	9b1e7e43          	fmadd.d	ft8,ft8,fa7,fs3
80001ffc:	02873887          	fld	fa7,40(a4)
80002000:	f4e43c27          	fsd	fa4,-168(s0)
80002004:	0286b807          	fld	fa6,40(a3)
80002008:	02863307          	fld	ft6,40(a2)
8000200c:	0285bf07          	fld	ft10,40(a1)
80002010:	2504                	fld	fs1,8(a0)
80002012:	7b28f743          	fmadd.d	fa4,fa7,fs2,fa5
80002016:	f5843787          	fld	fa5,-168(s0)
8000201a:	f4c43827          	fsd	fa2,-176(s0)
8000201e:	01053a87          	fld	fs5,16(a0)
80002022:	01853f87          	fld	ft11,24(a0)
80002026:	02053987          	fld	fs3,32(a0)
8000202a:	6a98f643          	fmadd.d	fa2,fa7,fs1,fa3
8000202e:	2304f243          	fmadd.d	ft4,fs1,fa6,ft4
80002032:	0264f043          	fmadd.d	ft0,fs1,ft6,ft0
80002036:	7be4f4c3          	fmadd.d	fs1,fs1,ft10,fa5
8000203a:	f5043787          	fld	fa5,-176(s0)
8000203e:	03070713          	addi	a4,a4,48
80002042:	130ff143          	fmadd.d	ft2,ft11,fa6,ft2
80002046:	53f8f543          	fmadd.d	fa0,fa7,ft11,fa0
8000204a:	2b0972c3          	fmadd.d	ft5,fs2,fa6,ft5
8000204e:	1b0af1c3          	fmadd.d	ft3,fs5,fa6,ft3
80002052:	0a697dc3          	fmadd.d	fs11,fs2,ft6,ft1
80002056:	c26af443          	fmadd.d	fs0,fs5,ft6,fs8
8000205a:	ca6ffcc3          	fmadd.d	fs9,ft11,ft6,fs9
8000205e:	7beaf0c3          	fmadd.d	ft1,fs5,ft10,fa5
80002062:	5b58f5c3          	fmadd.d	fa1,fa7,fs5,fa1
80002066:	eb38f6c3          	fmadd.d	fa3,fa7,fs3,ft9
8000206a:	3b09f843          	fmadd.d	fa6,fs3,fa6,ft7
8000206e:	d269fbc3          	fmadd.d	fs7,fs3,ft6,fs10
80002072:	b3e97c43          	fmadd.d	fs8,fs2,ft10,fs6
80002076:	a3efffc3          	fmadd.d	ft11,ft11,ft10,fs4
8000207a:	e3e9f7c3          	fmadd.d	fa5,fs3,ft10,ft8
8000207e:	97d2                	add	a5,a5,s4
80002080:	03068693          	addi	a3,a3,48
80002084:	03060613          	addi	a2,a2,48
80002088:	03058593          	addi	a1,a1,48
8000208c:	d1f76de3          	bltu	a4,t6,80001da6 <mm_cb+0xc22>
80002090:	22a50ed3          	fmv.d	ft9,fa0
80002094:	225288d3          	fmv.d	fa7,ft5
80002098:	22318a53          	fmv.d	fs4,ft3
8000209c:	23ff8553          	fmv.d	fa0,ft11
800020a0:	229481d3          	fmv.d	ft3,fs1
800020a4:	22e70ad3          	fmv.d	fs5,fa4
800020a8:	22c60f53          	fmv.d	ft10,fa2
800020ac:	22b58e53          	fmv.d	ft8,fa1
800020b0:	22420b53          	fmv.d	fs6,ft4
800020b4:	222109d3          	fmv.d	fs3,ft2
800020b8:	23bd8953          	fmv.d	fs2,fs11
800020bc:	238c02d3          	fmv.d	ft5,fs8
800020c0:	220004d3          	fmv.d	fs1,ft0
800020c4:	239c8fd3          	fmv.d	ft11,fs9
800020c8:	007e07b3          	add	a5,t3,t2
800020cc:	085ff763          	bleu	t0,t6,8000215a <mm_cb+0xfd6>
800020d0:	019b05b3          	add	a1,s6,s9
800020d4:	018b0633          	add	a2,s6,s8
800020d8:	01ab06b3          	add	a3,s6,s10
800020dc:	877e                	mv	a4,t6
800020de:	00073007          	fld	ft0,0(a4)
800020e2:	218c                	fld	fa1,0(a1)
800020e4:	2210                	fld	fa2,0(a2)
800020e6:	2298                	fld	fa4,0(a3)
800020e8:	0007bc07          	fld	fs8,0(a5)
800020ec:	0087b387          	fld	ft7,8(a5)
800020f0:	0107b307          	fld	ft6,16(a5)
800020f4:	0187b207          	fld	ft4,24(a5)
800020f8:	0207b107          	fld	ft2,32(a5)
800020fc:	0721                	addi	a4,a4,8
800020fe:	ab807ac3          	fmadd.d	fs5,ft0,fs8,fs5
80002102:	f2707f43          	fmadd.d	ft10,ft0,ft7,ft10
80002106:	e2607e43          	fmadd.d	ft8,ft0,ft6,ft8
8000210a:	ea407ec3          	fmadd.d	ft9,ft0,ft4,ft9
8000210e:	6a2076c3          	fmadd.d	fa3,ft0,ft2,fa3
80002112:	8abc78c3          	fmadd.d	fa7,fs8,fa1,fa7
80002116:	b2b3fb43          	fmadd.d	fs6,ft7,fa1,fs6
8000211a:	a2b37a43          	fmadd.d	fs4,ft6,fa1,fs4
8000211e:	9ab279c3          	fmadd.d	fs3,ft4,fa1,fs3
80002122:	82b17843          	fmadd.d	fa6,ft2,fa1,fa6
80002126:	92cc7943          	fmadd.d	fs2,fs8,fa2,fs2
8000212a:	4ac3f4c3          	fmadd.d	fs1,ft7,fa2,fs1
8000212e:	42c37443          	fmadd.d	fs0,ft6,fa2,fs0
80002132:	fac27fc3          	fmadd.d	ft11,ft4,fa2,ft11
80002136:	bac17bc3          	fmadd.d	fs7,ft2,fa2,fs7
8000213a:	2aec72c3          	fmadd.d	ft5,fs8,fa4,ft5
8000213e:	1ae3f1c3          	fmadd.d	ft3,ft7,fa4,ft3
80002142:	0ae370c3          	fmadd.d	ft1,ft6,fa4,ft1
80002146:	52e27543          	fmadd.d	fa0,ft4,fa4,fa0
8000214a:	7ae177c3          	fmadd.d	fa5,ft2,fa4,fa5
8000214e:	97ee                	add	a5,a5,s11
80002150:	05a1                	addi	a1,a1,8
80002152:	0621                	addi	a2,a2,8
80002154:	06a1                	addi	a3,a3,8
80002156:	f85764e3          	bltu	a4,t0,800020de <mm_cb+0xf5a>
8000215a:	015f3027          	fsd	fs5,0(t5)
8000215e:	01ef3427          	fsd	ft10,8(t5)
80002162:	01cf3827          	fsd	ft8,16(t5)
80002166:	01df3c27          	fsd	ft9,24(t5)
8000216a:	02df3027          	fsd	fa3,32(t5)
8000216e:	011eb027          	fsd	fa7,0(t4)
80002172:	016eb427          	fsd	fs6,8(t4)
80002176:	014eb827          	fsd	fs4,16(t4)
8000217a:	013ebc27          	fsd	fs3,24(t4)
8000217e:	030eb027          	fsd	fa6,32(t4)
80002182:	0128b027          	fsd	fs2,0(a7)
80002186:	0098b427          	fsd	fs1,8(a7)
8000218a:	0088b827          	fsd	fs0,16(a7)
8000218e:	01f8bc27          	fsd	ft11,24(a7)
80002192:	0378b027          	fsd	fs7,32(a7)
80002196:	00583027          	fsd	ft5,0(a6)
8000219a:	00383427          	fsd	ft3,8(a6)
8000219e:	00183827          	fsd	ft1,16(a6)
800021a2:	00a83c27          	fsd	fa0,24(a6)
800021a6:	02f83027          	fsd	fa5,32(a6)
800021aa:	0095                	addi	ra,ra,5
800021ac:	028f0f13          	addi	t5,t5,40
800021b0:	028e8e93          	addi	t4,t4,40
800021b4:	02888893          	addi	a7,a7,40
800021b8:	02880813          	addi	a6,a6,40
800021bc:	02838393          	addi	t2,t2,40
800021c0:	b460e8e3          	bltu	ra,t1,80001d10 <mm_cb+0xb8c>
800021c4:	ef042e03          	lw	t3,-272(s0)
800021c8:	401c                	lw	a5,0(s0)
800021ca:	f4642823          	sw	t1,-176(s0)
800021ce:	f4442303          	lw	t1,-188(s0)
800021d2:	c03e                	sw	a5,0(sp)
800021d4:	f4842703          	lw	a4,-184(s0)
800021d8:	f0042783          	lw	a5,-256(s0)
800021dc:	f4c42803          	lw	a6,-180(s0)
800021e0:	f4042603          	lw	a2,-192(s0)
800021e4:	f0c42583          	lw	a1,-244(s0)
800021e8:	0311                	addi	t1,t1,4
800021ea:	88f2                	mv	a7,t3
800021ec:	86de                	mv	a3,s7
800021ee:	4511                	li	a0,4
800021f0:	f5c42c23          	sw	t3,-168(s0)
800021f4:	f4642223          	sw	t1,-188(s0)
800021f8:	e51fe0ef          	jal	ra,80001048 <mm_naive>
800021fc:	ef442783          	lw	a5,-268(s0)
80002200:	ef842703          	lw	a4,-264(s0)
80002204:	f5842e03          	lw	t3,-168(s0)
80002208:	9bbe                	add	s7,s7,a5
8000220a:	9cbe                	add	s9,s9,a5
8000220c:	9e3a                	add	t3,t3,a4
8000220e:	9c3e                	add	s8,s8,a5
80002210:	9d3e                	add	s10,s10,a5
80002212:	f2842703          	lw	a4,-216(s0)
80002216:	f4442783          	lw	a5,-188(s0)
8000221a:	f5042303          	lw	t1,-176(s0)
8000221e:	aae7eae3          	bltu	a5,a4,80001cd2 <mm_cb+0xb4e>
80002222:	ec042703          	lw	a4,-320(s0)
80002226:	efc42b03          	lw	s6,-260(s0)
8000222a:	f2c42c03          	lw	s8,-212(s0)
8000222e:	f4642c23          	sw	t1,-168(s0)
80002232:	016706b3          	add	a3,a4,s6
80002236:	4018                	lw	a4,0(s0)
80002238:	f1042303          	lw	t1,-240(s0)
8000223c:	eb842883          	lw	a7,-328(s0)
80002240:	c03a                	sw	a4,0(sp)
80002242:	f4c42803          	lw	a6,-180(s0)
80002246:	f4842703          	lw	a4,-184(s0)
8000224a:	f4042603          	lw	a2,-192(s0)
8000224e:	f2442583          	lw	a1,-220(s0)
80002252:	ec442503          	lw	a0,-316(s0)
80002256:	01830b93          	addi	s7,t1,24
8000225a:	87e2                	mv	a5,s8
8000225c:	f1742823          	sw	s7,-240(s0)
80002260:	de9fe0ef          	jal	ra,80001048 <mm_naive>
80002264:	ea842783          	lw	a5,-344(s0)
80002268:	f5842303          	lw	t1,-168(s0)
8000226c:	97e2                	add	a5,a5,s8
8000226e:	f2f42623          	sw	a5,-212(s0)
80002272:	0c0b0793          	addi	a5,s6,192
80002276:	eef42e23          	sw	a5,-260(s0)
8000227a:	f3842783          	lw	a5,-200(s0)
8000227e:	9efbe3e3          	bltu	s7,a5,80001c64 <mm_cb+0xae0>
80002282:	8e26                	mv	t3,s1
80002284:	834a                	mv	t1,s2
80002286:	f0442703          	lw	a4,-252(s0)
8000228a:	f1842783          	lw	a5,-232(s0)
8000228e:	0c870713          	addi	a4,a4,200
80002292:	f0e42223          	sw	a4,-252(s0)
80002296:	f0842703          	lw	a4,-248(s0)
8000229a:	07e5                	addi	a5,a5,25
8000229c:	f0f42c23          	sw	a5,-232(s0)
800022a0:	0c870713          	addi	a4,a4,200
800022a4:	f0e42423          	sw	a4,-248(s0)
800022a8:	f2042703          	lw	a4,-224(s0)
800022ac:	90e7eee3          	bltu	a5,a4,80001bc8 <mm_cb+0xa44>
800022b0:	f3442783          	lw	a5,-204(s0)
800022b4:	cbd5                	beqz	a5,80002368 <mm_cb+0x11e4>
800022b6:	401c                	lw	a5,0(s0)
800022b8:	4018                	lw	a4,0(s0)
800022ba:	f1442f03          	lw	t5,-236(s0)
800022be:	00179813          	slli	a6,a5,0x1
800022c2:	f3042903          	lw	s2,-208(s0)
800022c6:	6785                	lui	a5,0x1
800022c8:	983a                	add	a6,a6,a4
800022ca:	081a                	slli	a6,a6,0x6
800022cc:	00371513          	slli	a0,a4,0x3
800022d0:	4e01                	li	t3,0
800022d2:	43e1                	li	t2,24
800022d4:	42e5                	li	t0,25
800022d6:	2c078f93          	addi	t6,a5,704 # 12c0 <buflen.2802+0x1240>
800022da:	38078313          	addi	t1,a5,896
800022de:	06090f63          	beqz	s2,8000235c <mm_cb+0x11d8>
800022e2:	027e58b3          	divu	a7,t3,t2
800022e6:	f3c42783          	lw	a5,-196(s0)
800022ea:	84fa                	mv	s1,t5
800022ec:	4e81                	li	t4,0
800022ee:	02f888b3          	mul	a7,a7,a5
800022f2:	f1c42783          	lw	a5,-228(s0)
800022f6:	8626                	mv	a2,s1
800022f8:	025ed5b3          	divu	a1,t4,t0
800022fc:	95c6                	add	a1,a1,a7
800022fe:	03f585b3          	mul	a1,a1,t6
80002302:	95be                	add	a1,a1,a5
80002304:	0c058693          	addi	a3,a1,192
80002308:	959a                	add	a1,a1,t1
8000230a:	f4068793          	addi	a5,a3,-192
8000230e:	8732                	mv	a4,a2
80002310:	0007b087          	fld	ft1,0(a5)
80002314:	0087b007          	fld	ft0,8(a5)
80002318:	2b88                	fld	fa0,16(a5)
8000231a:	2f8c                	fld	fa1,24(a5)
8000231c:	3390                	fld	fa2,32(a5)
8000231e:	3794                	fld	fa3,40(a5)
80002320:	3b98                	fld	fa4,48(a5)
80002322:	3f9c                	fld	fa5,56(a5)
80002324:	00173027          	fsd	ft1,0(a4)
80002328:	00073427          	fsd	ft0,8(a4)
8000232c:	ab08                	fsd	fa0,16(a4)
8000232e:	af0c                	fsd	fa1,24(a4)
80002330:	b310                	fsd	fa2,32(a4)
80002332:	b714                	fsd	fa3,40(a4)
80002334:	bb18                	fsd	fa4,48(a4)
80002336:	bf1c                	fsd	fa5,56(a4)
80002338:	04078793          	addi	a5,a5,64
8000233c:	04070713          	addi	a4,a4,64
80002340:	fcf698e3          	bne	a3,a5,80002310 <mm_cb+0x118c>
80002344:	229c                	fld	fa5,0(a3)
80002346:	0c868693          	addi	a3,a3,200
8000234a:	a27c                	fsd	fa5,192(a2)
8000234c:	962a                	add	a2,a2,a0
8000234e:	fad59ee3          	bne	a1,a3,8000230a <mm_cb+0x1186>
80002352:	0ee5                	addi	t4,t4,25
80002354:	0c848493          	addi	s1,s1,200
80002358:	f92eede3          	bltu	t4,s2,800022f2 <mm_cb+0x116e>
8000235c:	f3442783          	lw	a5,-204(s0)
80002360:	0e61                	addi	t3,t3,24
80002362:	9f42                	add	t5,t5,a6
80002364:	f6fe6de3          	bltu	t3,a5,800022de <mm_cb+0x115a>
80002368:	e7040113          	addi	sp,s0,-400
8000236c:	18c12083          	lw	ra,396(sp)
80002370:	18812403          	lw	s0,392(sp)
80002374:	18412483          	lw	s1,388(sp)
80002378:	18012903          	lw	s2,384(sp)
8000237c:	17c12983          	lw	s3,380(sp)
80002380:	17812a03          	lw	s4,376(sp)
80002384:	17412a83          	lw	s5,372(sp)
80002388:	17012b03          	lw	s6,368(sp)
8000238c:	16c12b83          	lw	s7,364(sp)
80002390:	16812c03          	lw	s8,360(sp)
80002394:	16412c83          	lw	s9,356(sp)
80002398:	16012d03          	lw	s10,352(sp)
8000239c:	15c12d83          	lw	s11,348(sp)
800023a0:	2436                	fld	fs0,328(sp)
800023a2:	2496                	fld	fs1,320(sp)
800023a4:	3972                	fld	fs2,312(sp)
800023a6:	39d2                	fld	fs3,304(sp)
800023a8:	3a32                	fld	fs4,296(sp)
800023aa:	3a92                	fld	fs5,288(sp)
800023ac:	2b72                	fld	fs6,280(sp)
800023ae:	2bd2                	fld	fs7,272(sp)
800023b0:	2c32                	fld	fs8,264(sp)
800023b2:	2c92                	fld	fs9,256(sp)
800023b4:	3d6e                	fld	fs10,248(sp)
800023b6:	3dce                	fld	fs11,240(sp)
800023b8:	6159                	addi	sp,sp,400
800023ba:	8082                	ret
800023bc:	ef442783          	lw	a5,-268(s0)
800023c0:	f2079d63          	bnez	a5,80001afa <mm_cb+0x976>
800023c4:	b755                	j	80002368 <mm_cb+0x11e4>
800023c6:	f1842783          	lw	a5,-232(s0)
800023ca:	4765                	li	a4,25
800023cc:	f2842483          	lw	s1,-216(s0)
800023d0:	02e7deb3          	divu	t4,a5,a4
800023d4:	ee842783          	lw	a5,-280(s0)
800023d8:	efc42283          	lw	t0,-260(s0)
800023dc:	009789b3          	add	s3,a5,s1
800023e0:	01378933          	add	s2,a5,s3
800023e4:	01278db3          	add	s11,a5,s2
800023e8:	edc42783          	lw	a5,-292(s0)
800023ec:	834a                	mv	t1,s2
800023ee:	e9c42903          	lw	s2,-356(s0)
800023f2:	9ebe                	add	t4,t4,a5
800023f4:	03ae8eb3          	mul	t4,t4,s10
800023f8:	f1c42783          	lw	a5,-228(s0)
800023fc:	9ebe                	add	t4,t4,a5
800023fe:	eb442783          	lw	a5,-332(s0)
80002402:	0c8e8f13          	addi	t5,t4,200
80002406:	e9d42823          	sw	t4,-368(s0)
8000240a:	97f6                	add	a5,a5,t4
8000240c:	8ece                	mv	t4,s3
8000240e:	eac42983          	lw	s3,-340(s0)
80002412:	ecf42223          	sw	a5,-316(s0)
80002416:	ecc42783          	lw	a5,-308(s0)
8000241a:	f2442083          	lw	ra,-220(s0)
8000241e:	009908b3          	add	a7,s2,s1
80002422:	009783b3          	add	t2,a5,s1
80002426:	f38f0513          	addi	a0,t5,-200
8000242a:	8786                	mv	a5,ra
8000242c:	00053b87          	fld	fs7,0(a0)
80002430:	00853b07          	fld	fs6,8(a0)
80002434:	01053a87          	fld	fs5,16(a0)
80002438:	01853a07          	fld	fs4,24(a0)
8000243c:	02053387          	fld	ft7,32(a0)
80002440:	2564                	fld	fs1,200(a0)
80002442:	2960                	fld	fs0,208(a0)
80002444:	0d853f87          	fld	ft11,216(a0)
80002448:	0e053f07          	fld	ft10,224(a0)
8000244c:	357c                	fld	fa5,232(a0)
8000244e:	19053e87          	fld	ft9,400(a0)
80002452:	19853c07          	fld	fs8,408(a0)
80002456:	1a053987          	fld	fs3,416(a0)
8000245a:	1a853907          	fld	fs2,424(a0)
8000245e:	1b053607          	fld	fa2,432(a0)
80002462:	25853087          	fld	ft1,600(a0)
80002466:	26053887          	fld	fa7,608(a0)
8000246a:	26853807          	fld	fa6,616(a0)
8000246e:	27053287          	fld	ft5,624(a0)
80002472:	27853c87          	fld	fs9,632(a0)
80002476:	3514ff63          	bleu	a7,s1,800027d4 <mm_cb+0x1650>
8000247a:	23ff81d3          	fmv.d	ft3,ft11
8000247e:	22c60353          	fmv.d	ft6,fa2
80002482:	22108e53          	fmv.d	ft8,ft1
80002486:	22528fd3          	fmv.d	ft11,ft5
8000248a:	235a8753          	fmv.d	fa4,fs5
8000248e:	23ef0153          	fmv.d	ft2,ft10
80002492:	234a06d3          	fmv.d	fa3,fs4
80002496:	22840253          	fmv.d	ft4,fs0
8000249a:	237b85d3          	fmv.d	fa1,fs7
8000249e:	238c0053          	fmv.d	ft0,fs8
800024a2:	23398553          	fmv.d	fa0,fs3
800024a6:	236b0653          	fmv.d	fa2,fs6
800024aa:	23de80d3          	fmv.d	ft1,ft9
800024ae:	229482d3          	fmv.d	ft5,fs1
800024b2:	85ee                	mv	a1,s11
800024b4:	861a                	mv	a2,t1
800024b6:	86f6                	mv	a3,t4
800024b8:	8726                	mv	a4,s1
800024ba:	0006bd87          	fld	fs11,0(a3)
800024be:	00063c07          	fld	fs8,0(a2)
800024c2:	0005bf07          	fld	ft10,0(a1)
800024c6:	00073d07          	fld	fs10,0(a4)
800024ca:	0007bb87          	fld	fs7,0(a5)
800024ce:	0087bb07          	fld	fs6,8(a5)
800024d2:	0107ba87          	fld	fs5,16(a5)
800024d6:	0187ba07          	fld	fs4,24(a5)
800024da:	0207b987          	fld	fs3,32(a5)
800024de:	8beb74c3          	fmadd.d	fs1,fs6,ft10,fa7
800024e2:	83eaf443          	fmadd.d	fs0,fs5,ft10,fa6
800024e6:	5b7d75c3          	fmadd.d	fa1,fs10,fs7,fa1
800024ea:	3389f343          	fmadd.d	ft6,fs3,fs8,ft6
800024ee:	fbea7fc3          	fmadd.d	ft11,fs4,ft10,ft11
800024f2:	636d7643          	fmadd.d	fa2,fs10,fs6,fa2
800024f6:	735d7743          	fmadd.d	fa4,fs10,fs5,fa4
800024fa:	6b4d76c3          	fmadd.d	fa3,fs10,fs4,fa3
800024fe:	2bbbf2c3          	fmadd.d	ft5,fs7,fs11,ft5
80002502:	3b3d7d43          	fmadd.d	fs10,fs10,fs3,ft7
80002506:	23bb7243          	fmadd.d	ft4,fs6,fs11,ft4
8000250a:	7bb9f3c3          	fmadd.d	ft7,fs3,fs11,fa5
8000250e:	1bbaf1c3          	fmadd.d	ft3,fs5,fs11,ft3
80002512:	13ba7143          	fmadd.d	ft2,fs4,fs11,ft2
80002516:	0b8bf0c3          	fmadd.d	ft1,fs7,fs8,ft1
8000251a:	938a7dc3          	fmadd.d	fs11,fs4,fs8,fs2
8000251e:	038b7043          	fmadd.d	ft0,fs6,fs8,ft0
80002522:	e3ebf943          	fmadd.d	fs2,fs7,ft10,ft8
80002526:	538af543          	fmadd.d	fa0,fs5,fs8,fa0
8000252a:	cbe9fc43          	fmadd.d	fs8,fs3,ft10,fs9
8000252e:	01978833          	add	a6,a5,s9
80002532:	0085bf07          	fld	ft10,8(a1)
80002536:	00873e87          	fld	ft9,8(a4)
8000253a:	0086be07          	fld	ft8,8(a3)
8000253e:	00863887          	fld	fa7,8(a2)
80002542:	00083b87          	fld	fs7,0(a6)
80002546:	00883b07          	fld	fs6,8(a6)
8000254a:	01083a87          	fld	fs5,16(a6)
8000254e:	01883a07          	fld	fs4,24(a6)
80002552:	02083987          	fld	fs3,32(a6)
80002556:	5b7ef7c3          	fmadd.d	fa5,ft9,fs7,fa1
8000255a:	636ef643          	fmadd.d	fa2,ft9,fs6,fa2
8000255e:	db1a75c3          	fmadd.d	fa1,fs4,fa7,fs11
80002562:	735ef743          	fmadd.d	fa4,ft9,fs5,fa4
80002566:	6b4ef6c3          	fmadd.d	fa3,ft9,fs4,fa3
8000256a:	2bcbf2c3          	fmadd.d	ft5,fs7,ft8,ft5
8000256e:	d33efec3          	fmadd.d	ft9,ft9,fs3,fs10
80002572:	23cb7243          	fmadd.d	ft4,fs6,ft8,ft4
80002576:	1bcaf1c3          	fmadd.d	ft3,fs5,ft8,ft3
8000257a:	13ca7143          	fmadd.d	ft2,fs4,ft8,ft2
8000257e:	0b1bf0c3          	fmadd.d	ft1,fs7,fa7,ft1
80002582:	3bc9fe43          	fmadd.d	ft8,fs3,ft8,ft7
80002586:	93ebfbc3          	fmadd.d	fs7,fs7,ft10,fs2
8000258a:	fbea7a43          	fmadd.d	fs4,fs4,ft10,ft11
8000258e:	031b7043          	fmadd.d	ft0,fs6,fa7,ft0
80002592:	531af543          	fmadd.d	fa0,fs5,fa7,fa0
80002596:	4beb7b43          	fmadd.d	fs6,fs6,ft10,fs1
8000259a:	3319f8c3          	fmadd.d	fa7,fs3,fa7,ft6
8000259e:	43eafac3          	fmadd.d	fs5,fs5,ft10,fs0
800025a2:	c3e9f9c3          	fmadd.d	fs3,fs3,ft10,fs8
800025a6:	00fc0833          	add	a6,s8,a5
800025aa:	01073807          	fld	fa6,16(a4)
800025ae:	0106b387          	fld	ft7,16(a3)
800025b2:	01063307          	fld	ft6,16(a2)
800025b6:	0105bc07          	fld	fs8,16(a1)
800025ba:	00083907          	fld	fs2,0(a6)
800025be:	00883487          	fld	fs1,8(a6)
800025c2:	01083407          	fld	fs0,16(a6)
800025c6:	01883f87          	fld	ft11,24(a6)
800025ca:	02083f07          	fld	ft10,32(a6)
800025ce:	7b2877c3          	fmadd.d	fa5,fa6,fs2,fa5
800025d2:	62987643          	fmadd.d	fa2,fa6,fs1,fa2
800025d6:	72887743          	fmadd.d	fa4,fa6,fs0,fa4
800025da:	6bf876c3          	fmadd.d	fa3,fa6,ft11,fa3
800025de:	2a7972c3          	fmadd.d	ft5,fs2,ft7,ft5
800025e2:	ebe87843          	fmadd.d	fa6,fa6,ft10,ft9
800025e6:	2274f243          	fmadd.d	ft4,fs1,ft7,ft4
800025ea:	1a7471c3          	fmadd.d	ft3,fs0,ft7,ft3
800025ee:	127ff143          	fmadd.d	ft2,ft11,ft7,ft2
800025f2:	0a6970c3          	fmadd.d	ft1,fs2,ft6,ft1
800025f6:	e27f73c3          	fmadd.d	ft7,ft10,ft7,ft8
800025fa:	0264f043          	fmadd.d	ft0,fs1,ft6,ft0
800025fe:	52647543          	fmadd.d	fa0,fs0,ft6,fa0
80002602:	5a6ff5c3          	fmadd.d	fa1,ft11,ft6,fa1
80002606:	ab847443          	fmadd.d	fs0,fs0,fs8,fs5
8000260a:	8a6f7343          	fmadd.d	ft6,ft10,ft6,fa7
8000260e:	a38fffc3          	fmadd.d	ft11,ft11,fs8,fs4
80002612:	9b8f7f43          	fmadd.d	ft10,ft10,fs8,fs3
80002616:	bb897943          	fmadd.d	fs2,fs2,fs8,fs7
8000261a:	b384f4c3          	fmadd.d	fs1,fs1,fs8,fs6
8000261e:	01678833          	add	a6,a5,s6
80002622:	01873d07          	fld	fs10,24(a4)
80002626:	00083b87          	fld	fs7,0(a6)
8000262a:	00883b07          	fld	fs6,8(a6)
8000262e:	01083a87          	fld	fs5,16(a6)
80002632:	01883a07          	fld	fs4,24(a6)
80002636:	02083c07          	fld	fs8,32(a6)
8000263a:	0185bc87          	fld	fs9,24(a1)
8000263e:	0186be07          	fld	ft8,24(a3)
80002642:	01863d87          	fld	fs11,24(a2)
80002646:	838d7843          	fmadd.d	fa6,fs10,fs8,fa6
8000264a:	939bf943          	fmadd.d	fs2,fs7,fs9,fs2
8000264e:	5bba75c3          	fmadd.d	fa1,fs4,fs11,fa1
80002652:	7b7d77c3          	fmadd.d	fa5,fs10,fs7,fa5
80002656:	636d7643          	fmadd.d	fa2,fs10,fs6,fa2
8000265a:	735d7743          	fmadd.d	fa4,fs10,fs5,fa4
8000265e:	6b4d76c3          	fmadd.d	fa3,fs10,fs4,fa3
80002662:	2bcbf2c3          	fmadd.d	ft5,fs7,ft8,ft5
80002666:	23cb7243          	fmadd.d	ft4,fs6,ft8,ft4
8000266a:	1bcaf1c3          	fmadd.d	ft3,fs5,ft8,ft3
8000266e:	13ca7143          	fmadd.d	ft2,fs4,ft8,ft2
80002672:	0bbbf0c3          	fmadd.d	ft1,fs7,fs11,ft1
80002676:	3bcc7e43          	fmadd.d	ft8,fs8,ft8,ft7
8000267a:	03bb7043          	fmadd.d	ft0,fs6,fs11,ft0
8000267e:	53baf543          	fmadd.d	fa0,fs5,fs11,fa0
80002682:	4b9b74c3          	fmadd.d	fs1,fs6,fs9,fs1
80002686:	33bc7dc3          	fmadd.d	fs11,fs8,fs11,ft6
8000268a:	439afac3          	fmadd.d	fs5,fs5,fs9,fs0
8000268e:	f39c7c43          	fmadd.d	fs8,fs8,fs9,ft10
80002692:	fb9a7a43          	fmadd.d	fs4,fs4,fs9,ft11
80002696:	00fb8833          	add	a6,s7,a5
8000269a:	02063307          	fld	ft6,32(a2)
8000269e:	02073d07          	fld	fs10,32(a4)
800026a2:	0206be87          	fld	ft9,32(a3)
800026a6:	0205b987          	fld	fs3,32(a1)
800026aa:	00883b87          	fld	fs7,8(a6)
800026ae:	01083407          	fld	fs0,16(a6)
800026b2:	01883f87          	fld	ft11,24(a6)
800026b6:	02083887          	fld	fa7,32(a6)
800026ba:	00083b07          	fld	fs6,0(a6)
800026be:	4b3bfcc3          	fmadd.d	fs9,fs7,fs3,fs1
800026c2:	637d7643          	fmadd.d	fa2,fs10,fs7,fa2
800026c6:	7b6d77c3          	fmadd.d	fa5,fs10,fs6,fa5
800026ca:	728d7743          	fmadd.d	fa4,fs10,fs0,fa4
800026ce:	6bfd76c3          	fmadd.d	fa3,fs10,ft11,fa3
800026d2:	e3d8fe43          	fmadd.d	ft8,fa7,ft9,ft8
800026d6:	831d7d43          	fmadd.d	fs10,fs10,fa7,fa6
800026da:	0a6b70c3          	fmadd.d	ft1,fs6,ft6,ft1
800026de:	5a6ff843          	fmadd.d	fa6,ft11,ft6,fa1
800026e2:	026bf043          	fmadd.d	ft0,fs7,ft6,ft0
800026e6:	52647543          	fmadd.d	fa0,fs0,ft6,fa0
800026ea:	da68fdc3          	fmadd.d	fs11,fa7,ft6,fs11
800026ee:	ab347ac3          	fmadd.d	fs5,fs0,fs3,fs5
800026f2:	a33ffa43          	fmadd.d	fs4,ft11,fs3,fs4
800026f6:	2bdb72c3          	fmadd.d	ft5,fs6,ft9,ft5
800026fa:	23dbf243          	fmadd.d	ft4,fs7,ft9,ft4
800026fe:	933b7b43          	fmadd.d	fs6,fs6,fs3,fs2
80002702:	1bd471c3          	fmadd.d	ft3,fs0,ft9,ft3
80002706:	c338f9c3          	fmadd.d	fs3,fa7,fs3,fs8
8000270a:	13dff143          	fmadd.d	ft2,ft11,ft9,ft2
8000270e:	01478833          	add	a6,a5,s4
80002712:	0286b887          	fld	fa7,40(a3)
80002716:	02873387          	fld	ft7,40(a4)
8000271a:	02863307          	fld	ft6,40(a2)
8000271e:	0285bf07          	fld	ft10,40(a1)
80002722:	00083b87          	fld	fs7,0(a6)
80002726:	00883487          	fld	fs1,8(a6)
8000272a:	01083407          	fld	fs0,16(a6)
8000272e:	01883f87          	fld	ft11,24(a6)
80002732:	02083c07          	fld	fs8,32(a6)
80002736:	03070713          	addi	a4,a4,48
8000273a:	826ff943          	fmadd.d	fs2,ft11,ft6,fa6
8000273e:	7b73f5c3          	fmadd.d	fa1,ft7,fs7,fa5
80002742:	6bf3f6c3          	fmadd.d	fa3,ft7,ft11,fa3
80002746:	131ff143          	fmadd.d	ft2,ft11,fa7,ft2
8000274a:	e31c77c3          	fmadd.d	fa5,fs8,fa7,ft8
8000274e:	6293f643          	fmadd.d	fa2,ft7,fs1,fa2
80002752:	7283f743          	fmadd.d	fa4,ft7,fs0,fa4
80002756:	2b1bf2c3          	fmadd.d	ft5,fs7,fa7,ft5
8000275a:	2314f243          	fmadd.d	ft4,fs1,fa7,ft4
8000275e:	1b1471c3          	fmadd.d	ft3,fs0,fa7,ft3
80002762:	0a6bf0c3          	fmadd.d	ft1,fs7,ft6,ft1
80002766:	0264f043          	fmadd.d	ft0,fs1,ft6,ft0
8000276a:	52647543          	fmadd.d	fa0,fs0,ft6,fa0
8000276e:	cbe4f8c3          	fmadd.d	fa7,fs1,ft10,fs9
80002772:	d383f3c3          	fmadd.d	ft7,ft7,fs8,fs10
80002776:	da6c7343          	fmadd.d	ft6,fs8,ft6,fs11
8000277a:	b3ebfe43          	fmadd.d	ft8,fs7,ft10,fs6
8000277e:	abe47843          	fmadd.d	fa6,fs0,ft10,fs5
80002782:	a3efffc3          	fmadd.d	ft11,ft11,ft10,fs4
80002786:	9bec7cc3          	fmadd.d	fs9,fs8,ft10,fs3
8000278a:	97d6                	add	a5,a5,s5
8000278c:	03068693          	addi	a3,a3,48
80002790:	03060613          	addi	a2,a2,48
80002794:	03058593          	addi	a1,a1,48
80002798:	d31761e3          	bltu	a4,a7,800024ba <mm_cb+0x1336>
8000279c:	22c60b53          	fmv.d	fs6,fa2
800027a0:	225284d3          	fmv.d	fs1,ft5
800027a4:	22108ed3          	fmv.d	ft9,ft1
800027a8:	23ff82d3          	fmv.d	ft5,ft11
800027ac:	22e70ad3          	fmv.d	fs5,fa4
800027b0:	22210f53          	fmv.d	ft10,ft2
800027b4:	22d68a53          	fmv.d	fs4,fa3
800027b8:	22420453          	fmv.d	fs0,ft4
800027bc:	22b58bd3          	fmv.d	fs7,fa1
800027c0:	22000c53          	fmv.d	fs8,ft0
800027c4:	22a509d3          	fmv.d	fs3,fa0
800027c8:	22630653          	fmv.d	fa2,ft6
800027cc:	23ce00d3          	fmv.d	ft1,ft8
800027d0:	22318fd3          	fmv.d	ft11,ft3
800027d4:	001987b3          	add	a5,s3,ra
800027d8:	0878f663          	bleu	t2,a7,80002864 <mm_cb+0x16e0>
800027dc:	01d905b3          	add	a1,s2,t4
800027e0:	00690633          	add	a2,s2,t1
800027e4:	01b906b3          	add	a3,s2,s11
800027e8:	8746                	mv	a4,a7
800027ea:	2308                	fld	fa0,0(a4)
800027ec:	218c                	fld	fa1,0(a1)
800027ee:	2214                	fld	fa3,0(a2)
800027f0:	2298                	fld	fa4,0(a3)
800027f2:	0007b307          	fld	ft6,0(a5)
800027f6:	0087b207          	fld	ft4,8(a5)
800027fa:	0107b187          	fld	ft3,16(a5)
800027fe:	0187b107          	fld	ft2,24(a5)
80002802:	0207b007          	fld	ft0,32(a5)
80002806:	0721                	addi	a4,a4,8
80002808:	ba657bc3          	fmadd.d	fs7,fa0,ft6,fs7
8000280c:	b2457b43          	fmadd.d	fs6,fa0,ft4,fs6
80002810:	aa357ac3          	fmadd.d	fs5,fa0,ft3,fs5
80002814:	a2257a43          	fmadd.d	fs4,fa0,ft2,fs4
80002818:	3a0573c3          	fmadd.d	ft7,fa0,ft0,ft7
8000281c:	4ab374c3          	fmadd.d	fs1,ft6,fa1,fs1
80002820:	42b27443          	fmadd.d	fs0,ft4,fa1,fs0
80002824:	fab1ffc3          	fmadd.d	ft11,ft3,fa1,ft11
80002828:	f2b17f43          	fmadd.d	ft10,ft2,fa1,ft10
8000282c:	7ab077c3          	fmadd.d	fa5,ft0,fa1,fa5
80002830:	ead37ec3          	fmadd.d	ft9,ft6,fa3,ft9
80002834:	c2d27c43          	fmadd.d	fs8,ft4,fa3,fs8
80002838:	9ad1f9c3          	fmadd.d	fs3,ft3,fa3,fs3
8000283c:	92d17943          	fmadd.d	fs2,ft2,fa3,fs2
80002840:	62d07643          	fmadd.d	fa2,ft0,fa3,fa2
80002844:	0ae370c3          	fmadd.d	ft1,ft6,fa4,ft1
80002848:	8ae278c3          	fmadd.d	fa7,ft4,fa4,fa7
8000284c:	82e1f843          	fmadd.d	fa6,ft3,fa4,fa6
80002850:	2ae172c3          	fmadd.d	ft5,ft2,fa4,ft5
80002854:	cae07cc3          	fmadd.d	fs9,ft0,fa4,fs9
80002858:	97e6                	add	a5,a5,s9
8000285a:	05a1                	addi	a1,a1,8
8000285c:	0621                	addi	a2,a2,8
8000285e:	06a1                	addi	a3,a3,8
80002860:	f87765e3          	bltu	a4,t2,800027ea <mm_cb+0x1666>
80002864:	01753027          	fsd	fs7,0(a0)
80002868:	01653427          	fsd	fs6,8(a0)
8000286c:	01553827          	fsd	fs5,16(a0)
80002870:	01453c27          	fsd	fs4,24(a0)
80002874:	02753027          	fsd	ft7,32(a0)
80002878:	a564                	fsd	fs1,200(a0)
8000287a:	a960                	fsd	fs0,208(a0)
8000287c:	0df53c27          	fsd	ft11,216(a0)
80002880:	0fe53027          	fsd	ft10,224(a0)
80002884:	b57c                	fsd	fa5,232(a0)
80002886:	19d53827          	fsd	ft9,400(a0)
8000288a:	19853c27          	fsd	fs8,408(a0)
8000288e:	1b353027          	fsd	fs3,416(a0)
80002892:	1b253427          	fsd	fs2,424(a0)
80002896:	1ac53827          	fsd	fa2,432(a0)
8000289a:	24153c27          	fsd	ft1,600(a0)
8000289e:	27153027          	fsd	fa7,608(a0)
800028a2:	27053427          	fsd	fa6,616(a0)
800028a6:	26553827          	fsd	ft5,624(a0)
800028aa:	27953c27          	fsd	fs9,632(a0)
800028ae:	02808093          	addi	ra,ra,40
800028b2:	02850513          	addi	a0,a0,40
800028b6:	b61e1ae3          	bne	t3,ra,8000242a <mm_cb+0x12a6>
800028ba:	f4c42803          	lw	a6,-180(s0)
800028be:	f4842703          	lw	a4,-184(s0)
800028c2:	f0842603          	lw	a2,-248(s0)
800028c6:	47e5                	li	a5,25
800028c8:	88fa                	mv	a7,t5
800028ca:	86a6                	mv	a3,s1
800028cc:	320f0f13          	addi	t5,t5,800
800028d0:	c03e                	sw	a5,0(sp)
800028d2:	4581                	li	a1,0
800028d4:	87f2                	mv	a5,t3
800028d6:	4511                	li	a0,4
800028d8:	ee642023          	sw	t1,-288(s0)
800028dc:	efd42c23          	sw	t4,-264(s0)
800028e0:	f0542823          	sw	t0,-240(s0)
800028e4:	f3c42623          	sw	t3,-212(s0)
800028e8:	f5e42823          	sw	t5,-176(s0)
800028ec:	f5cfe0ef          	jal	ra,80001048 <mm_naive>
800028f0:	f1042283          	lw	t0,-240(s0)
800028f4:	ef842e83          	lw	t4,-264(s0)
800028f8:	ee042303          	lw	t1,-288(s0)
800028fc:	ec442783          	lw	a5,-316(s0)
80002900:	f5042f03          	lw	t5,-176(s0)
80002904:	9496                	add	s1,s1,t0
80002906:	9e96                	add	t4,t4,t0
80002908:	9316                	add	t1,t1,t0
8000290a:	9d96                	add	s11,s11,t0
8000290c:	f2c42e03          	lw	t3,-212(s0)
80002910:	b1e793e3          	bne	a5,t5,80002416 <mm_cb+0x1292>
80002914:	e9042e83          	lw	t4,-368(s0)
80002918:	47e5                	li	a5,25
8000291a:	c03e                	sw	a5,0(sp)
8000291c:	f4c42803          	lw	a6,-180(s0)
80002920:	f2442783          	lw	a5,-220(s0)
80002924:	f4842703          	lw	a4,-184(s0)
80002928:	ee442683          	lw	a3,-284(s0)
8000292c:	f0842603          	lw	a2,-248(s0)
80002930:	01ae88b3          	add	a7,t4,s10
80002934:	45e5                	li	a1,25
80002936:	4501                	li	a0,0
80002938:	f5c42823          	sw	t3,-176(s0)
8000293c:	f0cfe0ef          	jal	ra,80001048 <mm_naive>
80002940:	f5042e03          	lw	t3,-176(s0)
80002944:	956ff06f          	j	80001a9a <mm_cb+0x916>
80002948:	f3842783          	lw	a5,-200(s0)
8000294c:	98078063          	beqz	a5,80001acc <mm_cb+0x948>
80002950:	e9442783          	lw	a5,-364(s0)
80002954:	f2842703          	lw	a4,-216(s0)
80002958:	f0042823          	sw	zero,-240(s0)
8000295c:	97ba                	add	a5,a5,a4
8000295e:	eef42c23          	sw	a5,-264(s0)
80002962:	ea042783          	lw	a5,-352(s0)
80002966:	f0f42c23          	sw	a5,-232(s0)
8000296a:	f1042703          	lw	a4,-240(s0)
8000296e:	f3842783          	lw	a5,-200(s0)
80002972:	8f99                	sub	a5,a5,a4
80002974:	f2f42223          	sw	a5,-220(s0)
80002978:	4761                	li	a4,24
8000297a:	00f77563          	bleu	a5,a4,80002984 <mm_cb+0x1800>
8000297e:	47e1                	li	a5,24
80002980:	f2f42223          	sw	a5,-220(s0)
80002984:	f2442703          	lw	a4,-220(s0)
80002988:	4799                	li	a5,6
8000298a:	ef842903          	lw	s2,-264(s0)
8000298e:	02f75e33          	divu	t3,a4,a5
80002992:	ee842783          	lw	a5,-280(s0)
80002996:	070e                	slli	a4,a4,0x3
80002998:	ece42223          	sw	a4,-316(s0)
8000299c:	01278cb3          	add	s9,a5,s2
800029a0:	019789b3          	add	s3,a5,s9
800029a4:	01378333          	add	t1,a5,s3
800029a8:	f0042783          	lw	a5,-256(s0)
800029ac:	f0442703          	lw	a4,-252(s0)
800029b0:	f1842683          	lw	a3,-232(s0)
800029b4:	f2f42623          	sw	a5,-212(s0)
800029b8:	4799                	li	a5,6
800029ba:	9736                	add	a4,a4,a3
800029bc:	f2f42423          	sw	a5,-216(s0)
800029c0:	87e6                	mv	a5,s9
800029c2:	eee42023          	sw	a4,-288(s0)
800029c6:	8cce                	mv	s9,s3
800029c8:	899a                	mv	s3,t1
800029ca:	833e                	mv	t1,a5
800029cc:	001e1493          	slli	s1,t3,0x1
800029d0:	94f2                	add	s1,s1,t3
800029d2:	03ca8e33          	mul	t3,s5,t3
800029d6:	0492                	slli	s1,s1,0x4
800029d8:	f4042783          	lw	a5,-192(s0)
800029dc:	4c078563          	beqz	a5,80002ea6 <mm_cb+0x1d22>
800029e0:	ea842783          	lw	a5,-344(s0)
800029e4:	f2c42e83          	lw	t4,-212(s0)
800029e8:	ec442703          	lw	a4,-316(s0)
800029ec:	f1842383          	lw	t2,-232(s0)
800029f0:	01d788b3          	add	a7,a5,t4
800029f4:	01178833          	add	a6,a5,a7
800029f8:	01248fb3          	add	t6,s1,s2
800029fc:	012702b3          	add	t0,a4,s2
80002a00:	01078f33          	add	t5,a5,a6
80002a04:	4081                	li	ra,0
80002a06:	879e                	mv	a5,t2
80002a08:	000eb407          	fld	fs0,0(t4)
80002a0c:	008ebf87          	fld	ft11,8(t4)
80002a10:	010eba87          	fld	fs5,16(t4)
80002a14:	018eba07          	fld	fs4,24(t4)
80002a18:	020eb807          	fld	fa6,32(t4)
80002a1c:	0008bb07          	fld	fs6,0(a7)
80002a20:	0088b987          	fld	fs3,8(a7)
80002a24:	0108b907          	fld	fs2,16(a7)
80002a28:	0188b487          	fld	fs1,24(a7)
80002a2c:	0208b187          	fld	ft3,32(a7)
80002a30:	00083f07          	fld	ft10,0(a6)
80002a34:	00883e87          	fld	ft9,8(a6)
80002a38:	01083e07          	fld	ft8,16(a6)
80002a3c:	01883887          	fld	fa7,24(a6)
80002a40:	02083707          	fld	fa4,32(a6)
80002a44:	000f3307          	fld	ft6,0(t5)
80002a48:	008f3207          	fld	ft4,8(t5)
80002a4c:	010f3107          	fld	ft2,16(t5)
80002a50:	018f3007          	fld	ft0,24(t5)
80002a54:	020f3787          	fld	fa5,32(t5)
80002a58:	35f97863          	bleu	t6,s2,80002da8 <mm_cb+0x1c24>
80002a5c:	223183d3          	fmv.d	ft7,ft3
80002a60:	23ce0553          	fmv.d	fa0,ft8
80002a64:	22420c53          	fmv.d	fs8,ft4
80002a68:	22000bd3          	fmv.d	fs7,ft0
80002a6c:	235a85d3          	fmv.d	fa1,fs5
80002a70:	236b02d3          	fmv.d	ft5,fs6
80002a74:	232901d3          	fmv.d	ft3,fs2
80002a78:	23ef00d3          	fmv.d	ft1,ft10
80002a7c:	23188e53          	fmv.d	ft8,fa7
80002a80:	23398253          	fmv.d	ft4,fs3
80002a84:	234a0053          	fmv.d	ft0,fs4
80002a88:	85ce                	mv	a1,s3
80002a8a:	8666                	mv	a2,s9
80002a8c:	869a                	mv	a3,t1
80002a8e:	874a                	mv	a4,s2
80002a90:	00073d07          	fld	fs10,0(a4)
80002a94:	0006bc87          	fld	fs9,0(a3)
80002a98:	00063887          	fld	fa7,0(a2)
80002a9c:	0005bf07          	fld	ft10,0(a1)
80002aa0:	0087bb07          	fld	fs6,8(a5)
80002aa4:	0107ba87          	fld	fs5,16(a5)
80002aa8:	0187ba07          	fld	fs4,24(a5)
80002aac:	0207b987          	fld	fs3,32(a5)
80002ab0:	0007b907          	fld	fs2,0(a5)
80002ab4:	4b9a7dc3          	fmadd.d	fs11,fs4,fs9,fs1
80002ab8:	5b5d75c3          	fmadd.d	fa1,fs10,fs5,fa1
80002abc:	432d76c3          	fmadd.d	fa3,fs10,fs2,fs0
80002ac0:	3b99f3c3          	fmadd.d	ft7,fs3,fs9,ft7
80002ac4:	2b9972c3          	fmadd.d	ft5,fs2,fs9,ft5
80002ac8:	239b7243          	fmadd.d	ft4,fs6,fs9,ft4
80002acc:	1b9af1c3          	fmadd.d	ft3,fs5,fs9,ft3
80002ad0:	0b1970c3          	fmadd.d	ft1,fs2,fa7,ft1
80002ad4:	e31a7cc3          	fmadd.d	fs9,fs4,fa7,ft8
80002ad8:	33e97943          	fmadd.d	fs2,fs2,ft10,ft6
80002adc:	fb6d7643          	fmadd.d	fa2,fs10,fs6,ft11
80002ae0:	13eaf443          	fmadd.d	fs0,fs5,ft10,ft2
80002ae4:	bbea7fc3          	fmadd.d	ft11,fs4,ft10,fs7
80002ae8:	034d7043          	fmadd.d	ft0,fs10,fs4,ft0
80002aec:	531af543          	fmadd.d	fa0,fs5,fa7,fa0
80002af0:	01b78533          	add	a0,a5,s11
80002af4:	00863307          	fld	ft6,8(a2)
80002af8:	0086be07          	fld	ft8,8(a3)
80002afc:	00053b87          	fld	fs7,0(a0)
80002b00:	01053a87          	fld	fs5,16(a0)
80002b04:	01853a07          	fld	fs4,24(a0)
80002b08:	c3eb74c3          	fmadd.d	fs1,fs6,ft10,fs8
80002b0c:	833d7843          	fmadd.d	fa6,fs10,fs3,fa6
80002b10:	02053c07          	fld	fs8,32(a0)
80002b14:	eb1b7d43          	fmadd.d	fs10,fs6,fa7,ft9
80002b18:	7be9ff43          	fmadd.d	ft10,fs3,ft10,fa5
80002b1c:	00873e87          	fld	ft9,8(a4)
80002b20:	00853b07          	fld	fs6,8(a0)
80002b24:	7319f8c3          	fmadd.d	fa7,fs3,fa7,fa4
80002b28:	0085b987          	fld	fs3,8(a1)
80002b2c:	6b7ef7c3          	fmadd.d	fa5,ft9,fs7,fa3
80002b30:	dbca7143          	fmadd.d	ft2,fs4,ft8,fs11
80002b34:	5b5ef6c3          	fmadd.d	fa3,ft9,fs5,fa1
80002b38:	2bcbf2c3          	fmadd.d	ft5,fs7,ft8,ft5
80002b3c:	ca6a75c3          	fmadd.d	fa1,fs4,ft6,fs9
80002b40:	23cb7243          	fmadd.d	ft4,fs6,ft8,ft4
80002b44:	1bcaf1c3          	fmadd.d	ft3,fs5,ft8,ft3
80002b48:	0a6bf0c3          	fmadd.d	ft1,fs7,ft6,ft1
80002b4c:	3bcc7e43          	fmadd.d	ft8,fs8,ft8,ft7
80002b50:	933bfbc3          	fmadd.d	fs7,fs7,fs3,fs2
80002b54:	636ef743          	fmadd.d	fa4,ft9,fs6,fa2
80002b58:	526af543          	fmadd.d	fa0,fs5,ft6,fa0
80002b5c:	034ef643          	fmadd.d	fa2,ft9,fs4,ft0
80002b60:	433afac3          	fmadd.d	fs5,fs5,fs3,fs0
80002b64:	fb3a7a43          	fmadd.d	fs4,fs4,fs3,ft11
80002b68:	00fc0533          	add	a0,s8,a5
80002b6c:	0106b387          	fld	ft7,16(a3)
80002b70:	00053907          	fld	fs2,0(a0)
80002b74:	2900                	fld	fs0,16(a0)
80002b76:	01853f87          	fld	ft11,24(a0)
80002b7a:	838efec3          	fmadd.d	ft9,ft9,fs8,fa6
80002b7e:	d26b7043          	fmadd.d	ft0,fs6,ft6,fs10
80002b82:	01073807          	fld	fa6,16(a4)
80002b86:	8a6c78c3          	fmadd.d	fa7,fs8,ft6,fa7
80002b8a:	4b3b7b43          	fmadd.d	fs6,fs6,fs3,fs1
80002b8e:	01063307          	fld	ft6,16(a2)
80002b92:	2504                	fld	fs1,8(a0)
80002b94:	f33c79c3          	fmadd.d	fs3,fs8,fs3,ft10
80002b98:	0105bc07          	fld	fs8,16(a1)
80002b9c:	02053f07          	fld	ft10,32(a0)
80002ba0:	7b2877c3          	fmadd.d	fa5,fa6,fs2,fa5
80002ba4:	2a7972c3          	fmadd.d	ft5,fs2,ft7,ft5
80002ba8:	2274f243          	fmadd.d	ft4,fs1,ft7,ft4
80002bac:	1a7471c3          	fmadd.d	ft3,fs0,ft7,ft3
80002bb0:	127ff143          	fmadd.d	ft2,ft11,ft7,ft2
80002bb4:	0a6970c3          	fmadd.d	ft1,fs2,ft6,ft1
80002bb8:	e27f73c3          	fmadd.d	ft7,ft10,ft7,ft8
80002bbc:	5a6ff5c3          	fmadd.d	fa1,ft11,ft6,fa1
80002bc0:	bb897943          	fmadd.d	fs2,fs2,fs8,fs7
80002bc4:	6a8876c3          	fmadd.d	fa3,fa6,fs0,fa3
80002bc8:	63f87643          	fmadd.d	fa2,fa6,ft11,fa2
80002bcc:	52647543          	fmadd.d	fa0,fs0,ft6,fa0
80002bd0:	a38fffc3          	fmadd.d	ft11,ft11,fs8,fs4
80002bd4:	ab847443          	fmadd.d	fs0,fs0,fs8,fs5
80002bd8:	01678533          	add	a0,a5,s6
80002bdc:	00053b87          	fld	fs7,0(a0)
80002be0:	01853e07          	fld	ft8,24(a0)
80002be4:	72987743          	fmadd.d	fa4,fa6,fs1,fa4
80002be8:	0264f043          	fmadd.d	ft0,fs1,ft6,ft0
80002bec:	ebe87843          	fmadd.d	fa6,fa6,ft10,ft9
80002bf0:	8a6f7343          	fmadd.d	ft6,ft10,ft6,fa7
80002bf4:	01053e87          	fld	ft9,16(a0)
80002bf8:	01873887          	fld	fa7,24(a4)
80002bfc:	9b8f7f43          	fmadd.d	ft10,ft10,fs8,fs3
80002c00:	b384f4c3          	fmadd.d	fs1,fs1,fs8,fs6
80002c04:	00853987          	fld	fs3,8(a0)
80002c08:	02053a07          	fld	fs4,32(a0)
80002c0c:	01863d07          	fld	fs10,24(a2)
80002c10:	0186bd87          	fld	fs11,24(a3)
80002c14:	0185bc87          	fld	fs9,24(a1)
80002c18:	5bae75c3          	fmadd.d	fa1,ft8,fs10,fa1
80002c1c:	2bbbf2c3          	fmadd.d	ft5,fs7,fs11,ft5
80002c20:	939bf943          	fmadd.d	fs2,fs7,fs9,fs2
80002c24:	23b9f243          	fmadd.d	ft4,fs3,fs11,ft4
80002c28:	1bbef1c3          	fmadd.d	ft3,ft9,fs11,ft3
80002c2c:	13be7143          	fmadd.d	ft2,ft8,fs11,ft2
80002c30:	3bba7dc3          	fmadd.d	fs11,fs4,fs11,ft7
80002c34:	439ef443          	fmadd.d	fs0,ft9,fs9,fs0
80002c38:	7b78f7c3          	fmadd.d	fa5,fa7,fs7,fa5
80002c3c:	6bd8f6c3          	fmadd.d	fa3,fa7,ft9,fa3
80002c40:	63c8f643          	fmadd.d	fa2,fa7,ft8,fa2
80002c44:	53aef543          	fmadd.d	fa0,ft9,fs10,fa0
80002c48:	fb9e7e43          	fmadd.d	ft8,ft8,fs9,ft11
80002c4c:	00fb8533          	add	a0,s7,a5
80002c50:	02063a87          	fld	fs5,32(a2)
80002c54:	0206b387          	fld	ft7,32(a3)
80002c58:	01853f87          	fld	ft11,24(a0)
80002c5c:	02053b07          	fld	fs6,32(a0)
80002c60:	03a9f043          	fmadd.d	ft0,fs3,fs10,ft0
80002c64:	4b99f4c3          	fmadd.d	fs1,fs3,fs9,fs1
80002c68:	7338f743          	fmadd.d	fa4,fa7,fs3,fa4
80002c6c:	0babf0c3          	fmadd.d	ft1,fs7,fs10,ft1
80002c70:	00053987          	fld	fs3,0(a0)
80002c74:	00853b87          	fld	fs7,8(a0)
80002c78:	33aa7343          	fmadd.d	ft6,fs4,fs10,ft6
80002c7c:	f39a7cc3          	fmadd.d	fs9,fs4,fs9,ft10
80002c80:	01053d07          	fld	fs10,16(a0)
80002c84:	0205bf07          	fld	ft10,32(a1)
80002c88:	8348f8c3          	fmadd.d	fa7,fa7,fs4,fa6
80002c8c:	02073807          	fld	fa6,32(a4)
80002c90:	127ff143          	fmadd.d	ft2,ft11,ft7,ft2
80002c94:	2a79f2c3          	fmadd.d	ft5,fs3,ft7,ft5
80002c98:	227bf243          	fmadd.d	ft4,fs7,ft7,ft4
80002c9c:	1a7d71c3          	fmadd.d	ft3,fs10,ft7,ft3
80002ca0:	da7b73c3          	fmadd.d	ft7,fs6,ft7,fs11
80002ca4:	5b5ffdc3          	fmadd.d	fs11,ft11,fs5,fa1
80002ca8:	93e9f5c3          	fmadd.d	fa1,fs3,ft10,fs2
80002cac:	7b3877c3          	fmadd.d	fa5,fa6,fs3,fa5
80002cb0:	6ba876c3          	fmadd.d	fa3,fa6,fs10,fa3
80002cb4:	535d7543          	fmadd.d	fa0,fs10,fs5,fa0
80002cb8:	43ed7d43          	fmadd.d	fs10,fs10,ft10,fs0
80002cbc:	e3eff443          	fmadd.d	fs0,ft11,ft10,ft8
80002cc0:	01478533          	add	a0,a5,s4
80002cc4:	73787743          	fmadd.d	fa4,fa6,fs7,fa4
80002cc8:	335b7343          	fmadd.d	ft6,fs6,fs5,ft6
80002ccc:	035bfec3          	fmadd.d	ft9,fs7,fs5,ft0
80002cd0:	00053907          	fld	fs2,0(a0)
80002cd4:	4bebfbc3          	fmadd.d	fs7,fs7,ft10,fs1
80002cd8:	3704                	fld	fs1,40(a4)
80002cda:	63f87643          	fmadd.d	fa2,fa6,ft11,fa2
80002cde:	0b59f0c3          	fmadd.d	ft1,fs3,fs5,ft1
80002ce2:	8b687843          	fmadd.d	fa6,fa6,fs6,fa7
80002ce6:	f4b43c27          	fsd	fa1,-168(s0)
80002cea:	cbeb7cc3          	fmadd.d	fs9,fs6,ft10,fs9
80002cee:	02863887          	fld	fa7,40(a2)
80002cf2:	0285bf07          	fld	ft10,40(a1)
80002cf6:	00853c07          	fld	fs8,8(a0)
80002cfa:	02053987          	fld	fs3,32(a0)
80002cfe:	f4843827          	fsd	fs0,-176(s0)
80002d02:	7b24f443          	fmadd.d	fs0,fs1,fs2,fa5
80002d06:	f5843787          	fld	fa5,-168(s0)
80002d0a:	0286be07          	fld	ft8,40(a3)
80002d0e:	01053a87          	fld	fs5,16(a0)
80002d12:	01853a07          	fld	fs4,24(a0)
80002d16:	7384ffc3          	fmadd.d	ft11,fs1,fs8,fa4
80002d1a:	3319f743          	fmadd.d	fa4,fs3,fa7,ft6
80002d1e:	7be97343          	fmadd.d	ft6,fs2,ft10,fa5
80002d22:	f5043787          	fld	fa5,-176(s0)
80002d26:	03070713          	addi	a4,a4,48
80002d2a:	23cc7243          	fmadd.d	ft4,fs8,ft8,ft4
80002d2e:	6b54f5c3          	fmadd.d	fa1,fs1,fs5,fa3
80002d32:	6344f043          	fmadd.d	ft0,fs1,fs4,fa2
80002d36:	8334f843          	fmadd.d	fa6,fs1,fs3,fa6
80002d3a:	2bc972c3          	fmadd.d	ft5,fs2,ft8,ft5
80002d3e:	13ca74c3          	fmadd.d	fs1,fs4,ft8,ft2
80002d42:	1bcaf1c3          	fmadd.d	ft3,fs5,ft8,ft3
80002d46:	3bc9f3c3          	fmadd.d	ft7,fs3,ft8,ft7
80002d4a:	eb1c7ec3          	fmadd.d	ft9,fs8,fa7,ft9
80002d4e:	0b1970c3          	fmadd.d	ft1,fs2,fa7,ft1
80002d52:	bbec7c43          	fmadd.d	fs8,fs8,ft10,fs7
80002d56:	531af543          	fmadd.d	fa0,fs5,fa7,fa0
80002d5a:	7bea7bc3          	fmadd.d	fs7,fs4,ft10,fa5
80002d5e:	db1a7e43          	fmadd.d	ft8,fs4,fa7,fs11
80002d62:	d3eaf143          	fmadd.d	ft2,fs5,ft10,fs10
80002d66:	cbe9f7c3          	fmadd.d	fa5,fs3,ft10,fs9
80002d6a:	97d6                	add	a5,a5,s5
80002d6c:	03068693          	addi	a3,a3,48
80002d70:	03060613          	addi	a2,a2,48
80002d74:	03058593          	addi	a1,a1,48
80002d78:	d1f76ce3          	bltu	a4,t6,80002a90 <mm_cb+0x190c>
80002d7c:	22000a53          	fmv.d	fs4,ft0
80002d80:	224209d3          	fmv.d	fs3,ft4
80002d84:	22318953          	fmv.d	fs2,ft3
80002d88:	23ce08d3          	fmv.d	fa7,ft8
80002d8c:	22b58ad3          	fmv.d	fs5,fa1
80002d90:	22528b53          	fmv.d	fs6,ft5
80002d94:	227381d3          	fmv.d	ft3,ft7
80002d98:	22108f53          	fmv.d	ft10,ft1
80002d9c:	22a50e53          	fmv.d	ft8,fa0
80002da0:	238c0253          	fmv.d	ft4,fs8
80002da4:	237b8053          	fmv.d	ft0,fs7
80002da8:	007e07b3          	add	a5,t3,t2
80002dac:	085ff663          	bleu	t0,t6,80002e38 <mm_cb+0x1cb4>
80002db0:	006485b3          	add	a1,s1,t1
80002db4:	01948633          	add	a2,s1,s9
80002db8:	013486b3          	add	a3,s1,s3
80002dbc:	877e                	mv	a4,t6
80002dbe:	2308                	fld	fa0,0(a4)
80002dc0:	218c                	fld	fa1,0(a1)
80002dc2:	2210                	fld	fa2,0(a2)
80002dc4:	2294                	fld	fa3,0(a3)
80002dc6:	0007bc07          	fld	fs8,0(a5)
80002dca:	0087bb87          	fld	fs7,8(a5)
80002dce:	0107b387          	fld	ft7,16(a5)
80002dd2:	0187b287          	fld	ft5,24(a5)
80002dd6:	0207b087          	fld	ft1,32(a5)
80002dda:	0721                	addi	a4,a4,8
80002ddc:	43857443          	fmadd.d	fs0,fa0,fs8,fs0
80002de0:	fb757fc3          	fmadd.d	ft11,fa0,fs7,ft11
80002de4:	aa757ac3          	fmadd.d	fs5,fa0,ft7,fs5
80002de8:	a2557a43          	fmadd.d	fs4,fa0,ft5,fs4
80002dec:	82157843          	fmadd.d	fa6,fa0,ft1,fa6
80002df0:	b2bc7b43          	fmadd.d	fs6,fs8,fa1,fs6
80002df4:	9abbf9c3          	fmadd.d	fs3,fs7,fa1,fs3
80002df8:	92b3f943          	fmadd.d	fs2,ft7,fa1,fs2
80002dfc:	4ab2f4c3          	fmadd.d	fs1,ft5,fa1,fs1
80002e00:	1ab0f1c3          	fmadd.d	ft3,ft1,fa1,ft3
80002e04:	f2cc7f43          	fmadd.d	ft10,fs8,fa2,ft10
80002e08:	eacbfec3          	fmadd.d	ft9,fs7,fa2,ft9
80002e0c:	e2c3fe43          	fmadd.d	ft8,ft7,fa2,ft8
80002e10:	8ac2f8c3          	fmadd.d	fa7,ft5,fa2,fa7
80002e14:	72c0f743          	fmadd.d	fa4,ft1,fa2,fa4
80002e18:	32dc7343          	fmadd.d	ft6,fs8,fa3,ft6
80002e1c:	22dbf243          	fmadd.d	ft4,fs7,fa3,ft4
80002e20:	12d3f143          	fmadd.d	ft2,ft7,fa3,ft2
80002e24:	02d2f043          	fmadd.d	ft0,ft5,fa3,ft0
80002e28:	7ad0f7c3          	fmadd.d	fa5,ft1,fa3,fa5
80002e2c:	97ee                	add	a5,a5,s11
80002e2e:	05a1                	addi	a1,a1,8
80002e30:	0621                	addi	a2,a2,8
80002e32:	06a1                	addi	a3,a3,8
80002e34:	f85765e3          	bltu	a4,t0,80002dbe <mm_cb+0x1c3a>
80002e38:	008eb027          	fsd	fs0,0(t4)
80002e3c:	01feb427          	fsd	ft11,8(t4)
80002e40:	015eb827          	fsd	fs5,16(t4)
80002e44:	014ebc27          	fsd	fs4,24(t4)
80002e48:	030eb027          	fsd	fa6,32(t4)
80002e4c:	0168b027          	fsd	fs6,0(a7)
80002e50:	0138b427          	fsd	fs3,8(a7)
80002e54:	0128b827          	fsd	fs2,16(a7)
80002e58:	0098bc27          	fsd	fs1,24(a7)
80002e5c:	0238b027          	fsd	ft3,32(a7)
80002e60:	f4042783          	lw	a5,-192(s0)
80002e64:	01e83027          	fsd	ft10,0(a6)
80002e68:	01d83427          	fsd	ft9,8(a6)
80002e6c:	01c83827          	fsd	ft8,16(a6)
80002e70:	01183c27          	fsd	fa7,24(a6)
80002e74:	02e83027          	fsd	fa4,32(a6)
80002e78:	006f3027          	fsd	ft6,0(t5)
80002e7c:	004f3427          	fsd	ft4,8(t5)
80002e80:	002f3827          	fsd	ft2,16(t5)
80002e84:	000f3c27          	fsd	ft0,24(t5)
80002e88:	02ff3027          	fsd	fa5,32(t5)
80002e8c:	0095                	addi	ra,ra,5
80002e8e:	028e8e93          	addi	t4,t4,40
80002e92:	02888893          	addi	a7,a7,40
80002e96:	02880813          	addi	a6,a6,40
80002e9a:	028f0f13          	addi	t5,t5,40
80002e9e:	02838393          	addi	t2,t2,40
80002ea2:	b6f0e2e3          	bltu	ra,a5,80002a06 <mm_cb+0x1882>
80002ea6:	f0442683          	lw	a3,-252(s0)
80002eaa:	f2c42783          	lw	a5,-212(s0)
80002eae:	4010                	lw	a2,0(s0)
80002eb0:	f4642823          	sw	t1,-176(s0)
80002eb4:	f2842303          	lw	t1,-216(s0)
80002eb8:	00f688b3          	add	a7,a3,a5
80002ebc:	c032                	sw	a2,0(sp)
80002ebe:	ee042783          	lw	a5,-288(s0)
80002ec2:	f4842703          	lw	a4,-184(s0)
80002ec6:	f4c42803          	lw	a6,-180(s0)
80002eca:	f2442603          	lw	a2,-220(s0)
80002ece:	ec842583          	lw	a1,-312(s0)
80002ed2:	86ca                	mv	a3,s2
80002ed4:	137d                	addi	t1,t1,-1
80002ed6:	4511                	li	a0,4
80002ed8:	f5c42c23          	sw	t3,-168(s0)
80002edc:	f2642423          	sw	t1,-216(s0)
80002ee0:	968fe0ef          	jal	ra,80001048 <mm_naive>
80002ee4:	efc42783          	lw	a5,-260(s0)
80002ee8:	f5042303          	lw	t1,-176(s0)
80002eec:	f2c42703          	lw	a4,-212(s0)
80002ef0:	ec042683          	lw	a3,-320(s0)
80002ef4:	993e                	add	s2,s2,a5
80002ef6:	933e                	add	t1,t1,a5
80002ef8:	9cbe                	add	s9,s9,a5
80002efa:	99be                	add	s3,s3,a5
80002efc:	f2842783          	lw	a5,-216(s0)
80002f00:	9736                	add	a4,a4,a3
80002f02:	f2e42623          	sw	a4,-212(s0)
80002f06:	f5842e03          	lw	t3,-168(s0)
80002f0a:	ac0797e3          	bnez	a5,800029d8 <mm_cb+0x1854>
80002f0e:	eec42703          	lw	a4,-276(s0)
80002f12:	ef842483          	lw	s1,-264(s0)
80002f16:	f1842983          	lw	s3,-232(s0)
80002f1a:	f1042303          	lw	t1,-240(s0)
80002f1e:	009706b3          	add	a3,a4,s1
80002f22:	4018                	lw	a4,0(s0)
80002f24:	edc42883          	lw	a7,-292(s0)
80002f28:	f4c42803          	lw	a6,-180(s0)
80002f2c:	c03a                	sw	a4,0(sp)
80002f2e:	f2442603          	lw	a2,-220(s0)
80002f32:	f4842703          	lw	a4,-184(s0)
80002f36:	eb042583          	lw	a1,-336(s0)
80002f3a:	87ce                	mv	a5,s3
80002f3c:	01830913          	addi	s2,t1,24
80002f40:	4501                	li	a0,0
80002f42:	f1242823          	sw	s2,-240(s0)
80002f46:	902fe0ef          	jal	ra,80001048 <mm_naive>
80002f4a:	e9842783          	lw	a5,-360(s0)
80002f4e:	97ce                	add	a5,a5,s3
80002f50:	f0f42c23          	sw	a5,-232(s0)
80002f54:	0c048793          	addi	a5,s1,192
80002f58:	eef42c23          	sw	a5,-264(s0)
80002f5c:	f3842783          	lw	a5,-200(s0)
80002f60:	a0f965e3          	bltu	s2,a5,8000296a <mm_cb+0x17e6>
80002f64:	b69fe06f          	j	80001acc <mm_cb+0x948>
80002f68:	f2842783          	lw	a5,-216(s0)
80002f6c:	eec42703          	lw	a4,-276(s0)
80002f70:	97ba                	add	a5,a5,a4
80002f72:	eef42223          	sw	a5,-284(s0)
80002f76:	b3dfe06f          	j	80001ab2 <mm_cb+0x92e>

80002f7a <mm>:
80002f7a:	716d                	addi	sp,sp,-272
80002f7c:	10812423          	sw	s0,264(sp)
80002f80:	11012403          	lw	s0,272(sp)
80002f84:	10112623          	sw	ra,268(sp)
80002f88:	10912223          	sw	s1,260(sp)
80002f8c:	11212023          	sw	s2,256(sp)
80002f90:	dfce                	sw	s3,252(sp)
80002f92:	ddd2                	sw	s4,248(sp)
80002f94:	dbd6                	sw	s5,244(sp)
80002f96:	d9da                	sw	s6,240(sp)
80002f98:	d7de                	sw	s7,236(sp)
80002f9a:	d5e2                	sw	s8,232(sp)
80002f9c:	d3e6                	sw	s9,228(sp)
80002f9e:	d1ea                	sw	s10,224(sp)
80002fa0:	cfee                	sw	s11,220(sp)
80002fa2:	a5a2                	fsd	fs0,200(sp)
80002fa4:	a1a6                	fsd	fs1,192(sp)
80002fa6:	bd4a                	fsd	fs2,184(sp)
80002fa8:	b94e                	fsd	fs3,176(sp)
80002faa:	b552                	fsd	fs4,168(sp)
80002fac:	b156                	fsd	fs5,160(sp)
80002fae:	ad5a                	fsd	fs6,152(sp)
80002fb0:	a95e                	fsd	fs7,144(sp)
80002fb2:	a562                	fsd	fs8,136(sp)
80002fb4:	a166                	fsd	fs9,128(sp)
80002fb6:	bcea                	fsd	fs10,120(sp)
80002fb8:	b8ee                	fsd	fs11,112(sp)
80002fba:	03000313          	li	t1,48
80002fbe:	cc22                	sw	s0,24(sp)
80002fc0:	5ea36863          	bltu	t1,a0,800035b0 <mm+0x636>
80002fc4:	03200e13          	li	t3,50
80002fc8:	5ebe6463          	bltu	t3,a1,800035b0 <mm+0x636>
80002fcc:	5ec36263          	bltu	t1,a2,800035b0 <mm+0x636>
80002fd0:	8bb6                	mv	s7,a3
80002fd2:	d4b6                	sw	a3,104(sp)
80002fd4:	4695                	li	a3,5
80002fd6:	83be                	mv	t2,a5
80002fd8:	de3e                	sw	a5,60(sp)
80002fda:	02d5d7b3          	divu	a5,a1,a3
80002fde:	8f2e                	mv	t5,a1
80002fe0:	d2ae                	sw	a1,100(sp)
80002fe2:	00341293          	slli	t0,s0,0x3
80002fe6:	ffc57593          	andi	a1,a0,-4
80002fea:	00371e93          	slli	t4,a4,0x3
80002fee:	d0aa                	sw	a0,96(sp)
80002ff0:	d6c6                	sw	a7,108(sp)
80002ff2:	d442                	sw	a6,40(sp)
80002ff4:	d23a                	sw	a4,36(sp)
80002ff6:	d032                	sw	a2,32(sp)
80002ff8:	ce2e                	sw	a1,28(sp)
80002ffa:	cc96                	sw	t0,88(sp)
80002ffc:	cef6                	sw	t4,92(sp)
80002ffe:	8e3a                	mv	t3,a4
80003000:	8fb2                	mv	t6,a2
80003002:	8522                	mv	a0,s0
80003004:	00279d93          	slli	s11,a5,0x2
80003008:	9dbe                	add	s11,s11,a5
8000300a:	52058e63          	beqz	a1,80003546 <mm+0x5cc>
8000300e:	4319                	li	t1,6
80003010:	02665333          	divu	t1,a2,t1
80003014:	00181493          	slli	s1,a6,0x1
80003018:	00141713          	slli	a4,s0,0x1
8000301c:	00281913          	slli	s2,a6,0x2
80003020:	003d9793          	slli	a5,s11,0x3
80003024:	94c2                	add	s1,s1,a6
80003026:	9722                	add	a4,a4,s0
80003028:	9942                	add	s2,s2,a6
8000302a:	00441613          	slli	a2,s0,0x4
8000302e:	41b005b3          	neg	a1,s11
80003032:	00381413          	slli	s0,a6,0x3
80003036:	00481a93          	slli	s5,a6,0x4
8000303a:	00581a13          	slli	s4,a6,0x5
8000303e:	003f9813          	slli	a6,t6,0x3
80003042:	058e                	slli	a1,a1,0x3
80003044:	070e                	slli	a4,a4,0x3
80003046:	c0c2                	sw	a6,64(sp)
80003048:	00f38833          	add	a6,t2,a5
8000304c:	8e1d                	sub	a2,a2,a5
8000304e:	d842                	sw	a6,48(sp)
80003050:	c8ae                	sw	a1,80(sp)
80003052:	005e1813          	slli	a6,t3,0x5
80003056:	40f285b3          	sub	a1,t0,a5
8000305a:	00f88e33          	add	t3,a7,a5
8000305e:	40f707b3          	sub	a5,a4,a5
80003062:	c2be                	sw	a5,68(sp)
80003064:	00449993          	slli	s3,s1,0x4
80003068:	01db8cb3          	add	s9,s7,t4
8000306c:	01dc8c33          	add	s8,s9,t4
80003070:	0516                	slli	a0,a0,0x5
80003072:	048e                	slli	s1,s1,0x3
80003074:	090e                	slli	s2,s2,0x3
80003076:	dc42                	sw	a6,56(sp)
80003078:	da2a                	sw	a0,52(sp)
8000307a:	02df77b3          	remu	a5,t5,a3
8000307e:	00131b13          	slli	s6,t1,0x1
80003082:	9b1a                	add	s6,s6,t1
80003084:	01dc0d33          	add	s10,s8,t4
80003088:	c6ae                	sw	a1,76(sp)
8000308a:	c4b2                	sw	a2,72(sp)
8000308c:	c802                	sw	zero,16(sp)
8000308e:	0b12                	slli	s6,s6,0x4
80003090:	02698333          	mul	t1,s3,t1
80003094:	d63e                	sw	a5,44(sp)
80003096:	ca9a                	sw	t1,84(sp)
80003098:	460d8b63          	beqz	s11,8000350e <mm+0x594>
8000309c:	4786                	lw	a5,64(sp)
8000309e:	53f2                	lw	t2,60(sp)
800030a0:	4356                	lw	t1,84(sp)
800030a2:	017782b3          	add	t0,a5,s7
800030a6:	47c6                	lw	a5,80(sp)
800030a8:	017b0fb3          	add	t6,s6,s7
800030ac:	4081                	li	ra,0
800030ae:	01c78f33          	add	t5,a5,t3
800030b2:	47b6                	lw	a5,76(sp)
800030b4:	01c78eb3          	add	t4,a5,t3
800030b8:	47a6                	lw	a5,72(sp)
800030ba:	01c788b3          	add	a7,a5,t3
800030be:	4796                	lw	a5,68(sp)
800030c0:	01c78833          	add	a6,a5,t3
800030c4:	879e                	mv	a5,t2
800030c6:	000f3b07          	fld	fs6,0(t5)
800030ca:	008f3a87          	fld	fs5,8(t5)
800030ce:	010f3a07          	fld	fs4,16(t5)
800030d2:	018f3987          	fld	fs3,24(t5)
800030d6:	020f3807          	fld	fa6,32(t5)
800030da:	000eb907          	fld	fs2,0(t4)
800030de:	008eb487          	fld	fs1,8(t4)
800030e2:	010eb407          	fld	fs0,16(t4)
800030e6:	018ebf87          	fld	ft11,24(t4)
800030ea:	020eb607          	fld	fa2,32(t4)
800030ee:	0008bf07          	fld	ft10,0(a7)
800030f2:	0088be87          	fld	ft9,8(a7)
800030f6:	0108be07          	fld	ft8,16(a7)
800030fa:	0188b887          	fld	fa7,24(a7)
800030fe:	0208b687          	fld	fa3,32(a7)
80003102:	00083387          	fld	ft7,0(a6)
80003106:	00883287          	fld	ft5,8(a6)
8000310a:	01083187          	fld	ft3,16(a6)
8000310e:	01883087          	fld	ft1,24(a6)
80003112:	02083787          	fld	fa5,32(a6)
80003116:	2ffbfe63          	bleu	t6,s7,80003412 <mm+0x498>
8000311a:	236b0753          	fmv.d	fa4,fs6
8000311e:	235a85d3          	fmv.d	fa1,fs5
80003122:	234a0553          	fmv.d	fa0,fs4
80003126:	23398053          	fmv.d	ft0,fs3
8000312a:	85ea                	mv	a1,s10
8000312c:	8662                	mv	a2,s8
8000312e:	86e6                	mv	a3,s9
80003130:	875e                	mv	a4,s7
80003132:	00073107          	fld	ft2,0(a4)
80003136:	00063207          	fld	ft4,0(a2)
8000313a:	0006b307          	fld	ft6,0(a3)
8000313e:	0005bc07          	fld	fs8,0(a1)
80003142:	0107bd87          	fld	fs11,16(a5)
80003146:	0187bd07          	fld	fs10,24(a5)
8000314a:	0207bc87          	fld	fs9,32(a5)
8000314e:	0007bb87          	fld	fs7,0(a5)
80003152:	0087bb07          	fld	fs6,8(a5)
80003156:	1b8dfac3          	fmadd.d	fs5,fs11,fs8,ft3
8000315a:	0b8d7a43          	fmadd.d	fs4,fs10,fs8,ft1
8000315e:	73717743          	fmadd.d	fa4,ft2,fs7,fa4
80003162:	5b6175c3          	fmadd.d	fa1,ft2,fs6,fa1
80003166:	53b17543          	fmadd.d	fa0,ft2,fs11,fa0
8000316a:	03a17043          	fmadd.d	ft0,ft2,fs10,ft0
8000316e:	83917843          	fmadd.d	fa6,ft2,fs9,fa6
80003172:	926bf943          	fmadd.d	fs2,fs7,ft6,fs2
80003176:	6a4cf143          	fmadd.d	ft2,fs9,ft4,fa3
8000317a:	4a6b74c3          	fmadd.d	fs1,fs6,ft6,fs1
8000317e:	426df443          	fmadd.d	fs0,fs11,ft6,fs0
80003182:	fa6d7fc3          	fmadd.d	ft11,fs10,ft6,ft11
80003186:	f24bff43          	fmadd.d	ft10,fs7,ft4,ft10
8000318a:	626cf343          	fmadd.d	ft6,fs9,ft6,fa2
8000318e:	ea4b7ec3          	fmadd.d	ft9,fs6,ft4,ft9
80003192:	e24dfe43          	fmadd.d	ft8,fs11,ft4,ft8
80003196:	8a4d78c3          	fmadd.d	fa7,fs10,ft4,fa7
8000319a:	3b8bfbc3          	fmadd.d	fs7,fs7,fs8,ft7
8000319e:	2b8b7b43          	fmadd.d	fs6,fs6,fs8,ft5
800031a2:	7b8cfc43          	fmadd.d	fs8,fs9,fs8,fa5
800031a6:	00f40533          	add	a0,s0,a5
800031aa:	2710                	fld	fa2,8(a4)
800031ac:	2694                	fld	fa3,8(a3)
800031ae:	00863207          	fld	ft4,8(a2)
800031b2:	0085b387          	fld	ft7,8(a1)
800031b6:	00053287          	fld	ft5,0(a0)
800031ba:	00853187          	fld	ft3,8(a0)
800031be:	01053087          	fld	ft1,16(a0)
800031c2:	2d1c                	fld	fa5,24(a0)
800031c4:	02053987          	fld	fs3,32(a0)
800031c8:	ba72fbc3          	fmadd.d	fs7,ft5,ft7,fs7
800031cc:	b271fb43          	fmadd.d	fs6,ft3,ft7,fs6
800031d0:	83367843          	fmadd.d	fa6,fa2,fs3,fa6
800031d4:	32d9f343          	fmadd.d	ft6,fs3,fa3,ft6
800031d8:	aa70fac3          	fmadd.d	fs5,ft1,ft7,fs5
800031dc:	a277fa43          	fmadd.d	fs4,fa5,ft7,fs4
800031e0:	72567743          	fmadd.d	fa4,fa2,ft5,fa4
800031e4:	c279f3c3          	fmadd.d	ft7,fs3,ft7,fs8
800031e8:	5a3675c3          	fmadd.d	fa1,fa2,ft3,fa1
800031ec:	52167543          	fmadd.d	fa0,fa2,ft1,fa0
800031f0:	02f67043          	fmadd.d	ft0,fa2,fa5,ft0
800031f4:	92d2f943          	fmadd.d	fs2,ft5,fa3,fs2
800031f8:	4ad1f4c3          	fmadd.d	fs1,ft3,fa3,fs1
800031fc:	42d0f443          	fmadd.d	fs0,ft1,fa3,fs0
80003200:	fad7ffc3          	fmadd.d	ft11,fa5,fa3,ft11
80003204:	f242ff43          	fmadd.d	ft10,ft5,ft4,ft10
80003208:	ea41fec3          	fmadd.d	ft9,ft3,ft4,ft9
8000320c:	e240fe43          	fmadd.d	ft8,ft1,ft4,ft8
80003210:	8a47f8c3          	fmadd.d	fa7,fa5,ft4,fa7
80003214:	1249f243          	fmadd.d	ft4,fs3,ft4,ft2
80003218:	00fa8533          	add	a0,s5,a5
8000321c:	2b10                	fld	fa2,16(a4)
8000321e:	2a94                	fld	fa3,16(a3)
80003220:	01063107          	fld	ft2,16(a2)
80003224:	0105bc07          	fld	fs8,16(a1)
80003228:	00053287          	fld	ft5,0(a0)
8000322c:	00853187          	fld	ft3,8(a0)
80003230:	01053087          	fld	ft1,16(a0)
80003234:	2d1c                	fld	fa5,24(a0)
80003236:	02053987          	fld	fs3,32(a0)
8000323a:	72567743          	fmadd.d	fa4,fa2,ft5,fa4
8000323e:	5a3675c3          	fmadd.d	fa1,fa2,ft3,fa1
80003242:	52167543          	fmadd.d	fa0,fa2,ft1,fa0
80003246:	02f67043          	fmadd.d	ft0,fa2,fa5,ft0
8000324a:	92d2f943          	fmadd.d	fs2,ft5,fa3,fs2
8000324e:	83367643          	fmadd.d	fa2,fa2,fs3,fa6
80003252:	4ad1f4c3          	fmadd.d	fs1,ft3,fa3,fs1
80003256:	42d0f443          	fmadd.d	fs0,ft1,fa3,fs0
8000325a:	fad7ffc3          	fmadd.d	ft11,fa5,fa3,ft11
8000325e:	f222ff43          	fmadd.d	ft10,ft5,ft2,ft10
80003262:	32d9f6c3          	fmadd.d	fa3,fs3,fa3,ft6
80003266:	bb82f2c3          	fmadd.d	ft5,ft5,fs8,fs7
8000326a:	ea21fec3          	fmadd.d	ft9,ft3,ft2,ft9
8000326e:	e220fe43          	fmadd.d	ft8,ft1,ft2,ft8
80003272:	b381f1c3          	fmadd.d	ft3,ft3,fs8,fs6
80003276:	ab80f0c3          	fmadd.d	ft1,ft1,fs8,fs5
8000327a:	8a27f8c3          	fmadd.d	fa7,fa5,ft2,fa7
8000327e:	2229f143          	fmadd.d	ft2,fs3,ft2,ft4
80003282:	a387f7c3          	fmadd.d	fa5,fa5,fs8,fs4
80003286:	3b89f9c3          	fmadd.d	fs3,fs3,fs8,ft7
8000328a:	00978533          	add	a0,a5,s1
8000328e:	01873807          	fld	fa6,24(a4)
80003292:	00053b87          	fld	fs7,0(a0)
80003296:	00853b07          	fld	fs6,8(a0)
8000329a:	01053a87          	fld	fs5,16(a0)
8000329e:	01853a07          	fld	fs4,24(a0)
800032a2:	02053c07          	fld	fs8,32(a0)
800032a6:	0186bd87          	fld	fs11,24(a3)
800032aa:	01863d07          	fld	fs10,24(a2)
800032ae:	0185bc87          	fld	fs9,24(a1)
800032b2:	63887643          	fmadd.d	fa2,fa6,fs8,fa2
800032b6:	6bbc76c3          	fmadd.d	fa3,fs8,fs11,fa3
800032ba:	73787743          	fmadd.d	fa4,fa6,fs7,fa4
800032be:	5b6875c3          	fmadd.d	fa1,fa6,fs6,fa1
800032c2:	53587543          	fmadd.d	fa0,fa6,fs5,fa0
800032c6:	03487043          	fmadd.d	ft0,fa6,fs4,ft0
800032ca:	93bbf943          	fmadd.d	fs2,fs7,fs11,fs2
800032ce:	4bbb74c3          	fmadd.d	fs1,fs6,fs11,fs1
800032d2:	43baf443          	fmadd.d	fs0,fs5,fs11,fs0
800032d6:	fbba7fc3          	fmadd.d	ft11,fs4,fs11,ft11
800032da:	f3abff43          	fmadd.d	ft10,fs7,fs10,ft10
800032de:	ebab7ec3          	fmadd.d	ft9,fs6,fs10,ft9
800032e2:	e3aafe43          	fmadd.d	ft8,fs5,fs10,ft8
800032e6:	8baa78c3          	fmadd.d	fa7,fs4,fs10,fa7
800032ea:	2b9bfbc3          	fmadd.d	fs7,fs7,fs9,ft5
800032ee:	13ac7d43          	fmadd.d	fs10,fs8,fs10,ft2
800032f2:	1b9b7b43          	fmadd.d	fs6,fs6,fs9,ft3
800032f6:	0b9afac3          	fmadd.d	fs5,fs5,fs9,ft1
800032fa:	7b9a7a43          	fmadd.d	fs4,fs4,fs9,fa5
800032fe:	9b9c7c43          	fmadd.d	fs8,fs8,fs9,fs3
80003302:	00fa0533          	add	a0,s4,a5
80003306:	02063107          	fld	ft2,32(a2)
8000330a:	02073807          	fld	fa6,32(a4)
8000330e:	0206b307          	fld	ft6,32(a3)
80003312:	0205b207          	fld	ft4,32(a1)
80003316:	311c                	fld	fa5,32(a0)
80003318:	00053387          	fld	ft7,0(a0)
8000331c:	00853287          	fld	ft5,8(a0)
80003320:	01053187          	fld	ft3,16(a0)
80003324:	01853d87          	fld	fs11,24(a0)
80003328:	72787743          	fmadd.d	fa4,fa6,ft7,fa4
8000332c:	5a5875c3          	fmadd.d	fa1,fa6,ft5,fa1
80003330:	52387543          	fmadd.d	fa0,fa6,ft3,fa0
80003334:	9263f943          	fmadd.d	fs2,ft7,ft6,fs2
80003338:	4a62f4c3          	fmadd.d	fs1,ft5,ft6,fs1
8000333c:	4261f443          	fmadd.d	fs0,ft3,ft6,fs0
80003340:	f223ff43          	fmadd.d	ft10,ft7,ft2,ft10
80003344:	ea22fec3          	fmadd.d	ft9,ft5,ft2,ft9
80003348:	e221fe43          	fmadd.d	ft8,ft3,ft2,ft8
8000334c:	d227fd43          	fmadd.d	fs10,fa5,ft2,fs10
80003350:	ba43f3c3          	fmadd.d	ft7,ft7,ft4,fs7
80003354:	b242f2c3          	fmadd.d	ft5,ft5,ft4,fs6
80003358:	aa41f1c3          	fmadd.d	ft3,ft3,ft4,fs5
8000335c:	a24df0c3          	fmadd.d	ft1,fs11,ft4,fs4
80003360:	03b87043          	fmadd.d	ft0,fa6,fs11,ft0
80003364:	c247f243          	fmadd.d	ft4,fa5,ft4,fs8
80003368:	62f87843          	fmadd.d	fa6,fa6,fa5,fa2
8000336c:	fa6dffc3          	fmadd.d	ft11,fs11,ft6,ft11
80003370:	8a2df8c3          	fmadd.d	fa7,fs11,ft2,fa7
80003374:	6a67f343          	fmadd.d	ft6,fa5,ft6,fa3
80003378:	01278533          	add	a0,a5,s2
8000337c:	371c                	fld	fa5,40(a4)
8000337e:	3690                	fld	fa2,40(a3)
80003380:	02863107          	fld	ft2,40(a2)
80003384:	0285b987          	fld	fs3,40(a1)
80003388:	00053b87          	fld	fs7,0(a0)
8000338c:	00853b07          	fld	fs6,8(a0)
80003390:	01053a87          	fld	fs5,16(a0)
80003394:	01853a07          	fld	fs4,24(a0)
80003398:	02053c07          	fld	fs8,32(a0)
8000339c:	03070713          	addi	a4,a4,48
800033a0:	7377f743          	fmadd.d	fa4,fa5,fs7,fa4
800033a4:	5b67f5c3          	fmadd.d	fa1,fa5,fs6,fa1
800033a8:	5357f543          	fmadd.d	fa0,fa5,fs5,fa0
800033ac:	0347f043          	fmadd.d	ft0,fa5,fs4,ft0
800033b0:	8387f843          	fmadd.d	fa6,fa5,fs8,fa6
800033b4:	92cbf943          	fmadd.d	fs2,fs7,fa2,fs2
800033b8:	4acb74c3          	fmadd.d	fs1,fs6,fa2,fs1
800033bc:	42caf443          	fmadd.d	fs0,fs5,fa2,fs0
800033c0:	faca7fc3          	fmadd.d	ft11,fs4,fa2,ft11
800033c4:	f22bff43          	fmadd.d	ft10,fs7,ft2,ft10
800033c8:	32cc7643          	fmadd.d	fa2,fs8,fa2,ft6
800033cc:	ea2b7ec3          	fmadd.d	ft9,fs6,ft2,ft9
800033d0:	e22afe43          	fmadd.d	ft8,fs5,ft2,ft8
800033d4:	8a2a78c3          	fmadd.d	fa7,fs4,ft2,fa7
800033d8:	d22c76c3          	fmadd.d	fa3,fs8,ft2,fs10
800033dc:	3b3bf3c3          	fmadd.d	ft7,fs7,fs3,ft7
800033e0:	2b3b72c3          	fmadd.d	ft5,fs6,fs3,ft5
800033e4:	1b3af1c3          	fmadd.d	ft3,fs5,fs3,ft3
800033e8:	0b3a70c3          	fmadd.d	ft1,fs4,fs3,ft1
800033ec:	233c77c3          	fmadd.d	fa5,fs8,fs3,ft4
800033f0:	97ce                	add	a5,a5,s3
800033f2:	03068693          	addi	a3,a3,48
800033f6:	03060613          	addi	a2,a2,48
800033fa:	03058593          	addi	a1,a1,48
800033fe:	d3f76ae3          	bltu	a4,t6,80003132 <mm+0x1b8>
80003402:	22e70b53          	fmv.d	fs6,fa4
80003406:	22b58ad3          	fmv.d	fs5,fa1
8000340a:	22a50a53          	fmv.d	fs4,fa0
8000340e:	220009d3          	fmv.d	fs3,ft0
80003412:	007307b3          	add	a5,t1,t2
80003416:	085ff763          	bleu	t0,t6,800034a4 <mm+0x52a>
8000341a:	019b05b3          	add	a1,s6,s9
8000341e:	018b0633          	add	a2,s6,s8
80003422:	01ab06b3          	add	a3,s6,s10
80003426:	877e                	mv	a4,t6
80003428:	00073007          	fld	ft0,0(a4)
8000342c:	2188                	fld	fa0,0(a1)
8000342e:	220c                	fld	fa1,0(a2)
80003430:	2298                	fld	fa4,0(a3)
80003432:	0007bc07          	fld	fs8,0(a5)
80003436:	0087bb87          	fld	fs7,8(a5)
8000343a:	0107b307          	fld	ft6,16(a5)
8000343e:	0187b207          	fld	ft4,24(a5)
80003442:	0207b107          	fld	ft2,32(a5)
80003446:	0721                	addi	a4,a4,8
80003448:	b3807b43          	fmadd.d	fs6,ft0,fs8,fs6
8000344c:	ab707ac3          	fmadd.d	fs5,ft0,fs7,fs5
80003450:	a2607a43          	fmadd.d	fs4,ft0,ft6,fs4
80003454:	9a4079c3          	fmadd.d	fs3,ft0,ft4,fs3
80003458:	82207843          	fmadd.d	fa6,ft0,ft2,fa6
8000345c:	92ac7943          	fmadd.d	fs2,fs8,fa0,fs2
80003460:	4aabf4c3          	fmadd.d	fs1,fs7,fa0,fs1
80003464:	42a37443          	fmadd.d	fs0,ft6,fa0,fs0
80003468:	faa27fc3          	fmadd.d	ft11,ft4,fa0,ft11
8000346c:	62a17643          	fmadd.d	fa2,ft2,fa0,fa2
80003470:	f2bc7f43          	fmadd.d	ft10,fs8,fa1,ft10
80003474:	eabbfec3          	fmadd.d	ft9,fs7,fa1,ft9
80003478:	e2b37e43          	fmadd.d	ft8,ft6,fa1,ft8
8000347c:	8ab278c3          	fmadd.d	fa7,ft4,fa1,fa7
80003480:	6ab176c3          	fmadd.d	fa3,ft2,fa1,fa3
80003484:	3aec73c3          	fmadd.d	ft7,fs8,fa4,ft7
80003488:	2aebf2c3          	fmadd.d	ft5,fs7,fa4,ft5
8000348c:	1ae371c3          	fmadd.d	ft3,ft6,fa4,ft3
80003490:	0ae270c3          	fmadd.d	ft1,ft4,fa4,ft1
80003494:	7ae177c3          	fmadd.d	fa5,ft2,fa4,fa5
80003498:	97a2                	add	a5,a5,s0
8000349a:	05a1                	addi	a1,a1,8
8000349c:	0621                	addi	a2,a2,8
8000349e:	06a1                	addi	a3,a3,8
800034a0:	f85764e3          	bltu	a4,t0,80003428 <mm+0x4ae>
800034a4:	016f3027          	fsd	fs6,0(t5)
800034a8:	015f3427          	fsd	fs5,8(t5)
800034ac:	014f3827          	fsd	fs4,16(t5)
800034b0:	013f3c27          	fsd	fs3,24(t5)
800034b4:	030f3027          	fsd	fa6,32(t5)
800034b8:	012eb027          	fsd	fs2,0(t4)
800034bc:	009eb427          	fsd	fs1,8(t4)
800034c0:	008eb827          	fsd	fs0,16(t4)
800034c4:	01febc27          	fsd	ft11,24(t4)
800034c8:	02ceb027          	fsd	fa2,32(t4)
800034cc:	01e8b027          	fsd	ft10,0(a7)
800034d0:	01d8b427          	fsd	ft9,8(a7)
800034d4:	01c8b827          	fsd	ft8,16(a7)
800034d8:	0118bc27          	fsd	fa7,24(a7)
800034dc:	02d8b027          	fsd	fa3,32(a7)
800034e0:	00783027          	fsd	ft7,0(a6)
800034e4:	00583427          	fsd	ft5,8(a6)
800034e8:	00383827          	fsd	ft3,16(a6)
800034ec:	00183c27          	fsd	ft1,24(a6)
800034f0:	02f83027          	fsd	fa5,32(a6)
800034f4:	0095                	addi	ra,ra,5
800034f6:	028f0f13          	addi	t5,t5,40
800034fa:	028e8e93          	addi	t4,t4,40
800034fe:	02888893          	addi	a7,a7,40
80003502:	02880813          	addi	a6,a6,40
80003506:	02838393          	addi	t2,t2,40
8000350a:	bbb0ede3          	bltu	ra,s11,800030c4 <mm+0x14a>
8000350e:	47e2                	lw	a5,24(sp)
80003510:	4342                	lw	t1,16(sp)
80003512:	5712                	lw	a4,36(sp)
80003514:	c03e                	sw	a5,0(sp)
80003516:	5822                	lw	a6,40(sp)
80003518:	57c2                	lw	a5,48(sp)
8000351a:	5602                	lw	a2,32(sp)
8000351c:	55b2                	lw	a1,44(sp)
8000351e:	0311                	addi	t1,t1,4
80003520:	88f2                	mv	a7,t3
80003522:	86de                	mv	a3,s7
80003524:	4511                	li	a0,4
80003526:	ca72                	sw	t3,20(sp)
80003528:	c81a                	sw	t1,16(sp)
8000352a:	b1ffd0ef          	jal	ra,80001048 <mm_naive>
8000352e:	57e2                	lw	a5,56(sp)
80003530:	5752                	lw	a4,52(sp)
80003532:	4e52                	lw	t3,20(sp)
80003534:	9bbe                	add	s7,s7,a5
80003536:	9cbe                	add	s9,s9,a5
80003538:	9c3e                	add	s8,s8,a5
8000353a:	9d3e                	add	s10,s10,a5
8000353c:	4342                	lw	t1,16(sp)
8000353e:	47f2                	lw	a5,28(sp)
80003540:	9e3a                	add	t3,t3,a4
80003542:	b4f36be3          	bltu	t1,a5,80003098 <mm+0x11e>
80003546:	46f2                	lw	a3,28(sp)
80003548:	47e6                	lw	a5,88(sp)
8000354a:	4476                	lw	s0,92(sp)
8000354c:	5506                	lw	a0,96(sp)
8000354e:	02f688b3          	mul	a7,a3,a5
80003552:	47e2                	lw	a5,24(sp)
80003554:	8d15                	sub	a0,a0,a3
80003556:	5822                	lw	a6,40(sp)
80003558:	10f12823          	sw	a5,272(sp)
8000355c:	5712                	lw	a4,36(sp)
8000355e:	57f2                	lw	a5,60(sp)
80003560:	5602                	lw	a2,32(sp)
80003562:	5596                	lw	a1,100(sp)
80003564:	10c12083          	lw	ra,268(sp)
80003568:	028686b3          	mul	a3,a3,s0
8000356c:	5436                	lw	s0,108(sp)
8000356e:	10412483          	lw	s1,260(sp)
80003572:	10012903          	lw	s2,256(sp)
80003576:	98a2                	add	a7,a7,s0
80003578:	5426                	lw	s0,104(sp)
8000357a:	59fe                	lw	s3,252(sp)
8000357c:	5a6e                	lw	s4,248(sp)
8000357e:	5ade                	lw	s5,244(sp)
80003580:	5b4e                	lw	s6,240(sp)
80003582:	96a2                	add	a3,a3,s0
80003584:	10812403          	lw	s0,264(sp)
80003588:	5bbe                	lw	s7,236(sp)
8000358a:	5c2e                	lw	s8,232(sp)
8000358c:	5c9e                	lw	s9,228(sp)
8000358e:	5d0e                	lw	s10,224(sp)
80003590:	4dfe                	lw	s11,220(sp)
80003592:	242e                	fld	fs0,200(sp)
80003594:	248e                	fld	fs1,192(sp)
80003596:	396a                	fld	fs2,184(sp)
80003598:	39ca                	fld	fs3,176(sp)
8000359a:	3a2a                	fld	fs4,168(sp)
8000359c:	3a8a                	fld	fs5,160(sp)
8000359e:	2b6a                	fld	fs6,152(sp)
800035a0:	2bca                	fld	fs7,144(sp)
800035a2:	2c2a                	fld	fs8,136(sp)
800035a4:	2c8a                	fld	fs9,128(sp)
800035a6:	3d66                	fld	fs10,120(sp)
800035a8:	3dc6                	fld	fs11,112(sp)
800035aa:	6151                	addi	sp,sp,272
800035ac:	a9dfd06f          	j	80001048 <mm_naive>
800035b0:	4462                	lw	s0,24(sp)
800035b2:	10c12083          	lw	ra,268(sp)
800035b6:	10412483          	lw	s1,260(sp)
800035ba:	10812823          	sw	s0,272(sp)
800035be:	10812403          	lw	s0,264(sp)
800035c2:	10012903          	lw	s2,256(sp)
800035c6:	59fe                	lw	s3,252(sp)
800035c8:	5a6e                	lw	s4,248(sp)
800035ca:	5ade                	lw	s5,244(sp)
800035cc:	5b4e                	lw	s6,240(sp)
800035ce:	5bbe                	lw	s7,236(sp)
800035d0:	5c2e                	lw	s8,232(sp)
800035d2:	5c9e                	lw	s9,228(sp)
800035d4:	5d0e                	lw	s10,224(sp)
800035d6:	4dfe                	lw	s11,220(sp)
800035d8:	242e                	fld	fs0,200(sp)
800035da:	248e                	fld	fs1,192(sp)
800035dc:	396a                	fld	fs2,184(sp)
800035de:	39ca                	fld	fs3,176(sp)
800035e0:	3a2a                	fld	fs4,168(sp)
800035e2:	3a8a                	fld	fs5,160(sp)
800035e4:	2b6a                	fld	fs6,152(sp)
800035e6:	2bca                	fld	fs7,144(sp)
800035e8:	2c2a                	fld	fs8,136(sp)
800035ea:	2c8a                	fld	fs9,128(sp)
800035ec:	3d66                	fld	fs10,120(sp)
800035ee:	3dc6                	fld	fs11,112(sp)
800035f0:	6151                	addi	sp,sp,272
800035f2:	b93fd06f          	j	80001184 <mm_cb>

800035f6 <barrier>:
800035f6:	0ff0000f          	fence
800035fa:	00022683          	lw	a3,0(tp) # 0 <threadsense.3496>
800035fe:	ba018713          	addi	a4,gp,-1120 # 80004fe8 <count.3495>
80003602:	4605                	li	a2,1
80003604:	0016b693          	seqz	a3,a3
80003608:	00d22023          	sw	a3,0(tp) # 0 <threadsense.3496>
8000360c:	0f50000f          	fence	iorw,ow
80003610:	04c726af          	amoadd.w.aq	a3,a2,(a4)
80003614:	157d                	addi	a0,a0,-1
80003616:	00a68c63          	beq	a3,a0,8000362e <barrier+0x38>
8000361a:	00022683          	lw	a3,0(tp) # 0 <threadsense.3496>
8000361e:	b9c18713          	addi	a4,gp,-1124 # 80004fe4 <sense.3494>
80003622:	431c                	lw	a5,0(a4)
80003624:	fed79fe3          	bne	a5,a3,80003622 <barrier+0x2c>
80003628:	0ff0000f          	fence
8000362c:	8082                	ret
8000362e:	00022783          	lw	a5,0(tp) # 0 <threadsense.3496>
80003632:	ba01a023          	sw	zero,-1120(gp) # 80004fe8 <count.3495>
80003636:	b8f1ae23          	sw	a5,-1124(gp) # 80004fe4 <sense.3494>
8000363a:	b7fd                	j	80003628 <barrier+0x32>

8000363c <thread_entry>:
8000363c:	711d                	addi	sp,sp,-96
8000363e:	77fd                	lui	a5,0xfffff
80003640:	cca2                	sw	s0,88(sp)
80003642:	caa6                	sw	s1,84(sp)
80003644:	1080                	addi	s0,sp,96
80003646:	c8ca                	sw	s2,80(sp)
80003648:	c2d6                	sw	s5,68(sp)
8000364a:	c0da                	sw	s6,64(sp)
8000364c:	de5e                	sw	s7,60(sp)
8000364e:	dc62                	sw	s8,56(sp)
80003650:	da66                	sw	s9,52(sp)
80003652:	d86a                	sw	s10,48(sp)
80003654:	d66e                	sw	s11,44(sp)
80003656:	ce86                	sw	ra,92(sp)
80003658:	c6ce                	sw	s3,76(sp)
8000365a:	c4d2                	sw	s4,72(sp)
8000365c:	df078713          	addi	a4,a5,-528 # ffffedf0 <__global_pointer$+0x7fff99a8>
80003660:	d3078793          	addi	a5,a5,-720
80003664:	913a                	add	sp,sp,a4
80003666:	01010c93          	addi	s9,sp,16
8000366a:	6a85                	lui	s5,0x1
8000366c:	913e                	add	sp,sp,a5
8000366e:	01010c13          	addi	s8,sp,16
80003672:	200a8a93          	addi	s5,s5,512 # 1200 <buflen.2802+0x1180>
80003676:	913e                	add	sp,sp,a5
80003678:	deadc7b7          	lui	a5,0xdeadc
8000367c:	faa42e23          	sw	a0,-68(s0)
80003680:	fab42823          	sw	a1,-80(s0)
80003684:	01010b93          	addi	s7,sp,16
80003688:	8b66                	mv	s6,s9
8000368a:	9ae6                	add	s5,s5,s9
8000368c:	8d66                	mv	s10,s9
8000368e:	eef78d93          	addi	s11,a5,-273 # deadbeef <__global_pointer$+0x5ead6aa7>
80003692:	4481                	li	s1,0
80003694:	40000937          	lui	s2,0x40000
80003698:	0c0d0a13          	addi	s4,s10,192
8000369c:	01f49713          	slli	a4,s1,0x1f
800036a0:	001dd693          	srli	a3,s11,0x1
800036a4:	8ed9                	or	a3,a3,a4
800036a6:	01b6c733          	xor	a4,a3,s11
800036aa:	077a                	slli	a4,a4,0x1e
800036ac:	00e97733          	and	a4,s2,a4
800036b0:	8085                	srli	s1,s1,0x1
800036b2:	8cd9                	or	s1,s1,a4
800036b4:	8536                	mv	a0,a3
800036b6:	85a6                	mv	a1,s1
800036b8:	8db6                	mv	s11,a3
800036ba:	337000ef          	jal	ra,800041f0 <__floatundidf>
800036be:	01f49713          	slli	a4,s1,0x1f
800036c2:	001dd693          	srli	a3,s11,0x1
800036c6:	8ed9                	or	a3,a3,a4
800036c8:	01b6c733          	xor	a4,a3,s11
800036cc:	077a                	slli	a4,a4,0x1e
800036ce:	00e97733          	and	a4,s2,a4
800036d2:	8085                	srli	s1,s1,0x1
800036d4:	8cd9                	or	s1,s1,a4
800036d6:	8536                	mv	a0,a3
800036d8:	85a6                	mv	a1,s1
800036da:	00ad3027          	fsd	fa0,0(s10)
800036de:	8db6                	mv	s11,a3
800036e0:	311000ef          	jal	ra,800041f0 <__floatundidf>
800036e4:	01f49713          	slli	a4,s1,0x1f
800036e8:	001dd693          	srli	a3,s11,0x1
800036ec:	8ed9                	or	a3,a3,a4
800036ee:	01b6c733          	xor	a4,a3,s11
800036f2:	077a                	slli	a4,a4,0x1e
800036f4:	00e97733          	and	a4,s2,a4
800036f8:	8085                	srli	s1,s1,0x1
800036fa:	8cd9                	or	s1,s1,a4
800036fc:	8536                	mv	a0,a3
800036fe:	85a6                	mv	a1,s1
80003700:	00ad3427          	fsd	fa0,8(s10)
80003704:	8db6                	mv	s11,a3
80003706:	2eb000ef          	jal	ra,800041f0 <__floatundidf>
8000370a:	01f49713          	slli	a4,s1,0x1f
8000370e:	001dd693          	srli	a3,s11,0x1
80003712:	8ed9                	or	a3,a3,a4
80003714:	01b6c733          	xor	a4,a3,s11
80003718:	077a                	slli	a4,a4,0x1e
8000371a:	00e97733          	and	a4,s2,a4
8000371e:	8085                	srli	s1,s1,0x1
80003720:	8cd9                	or	s1,s1,a4
80003722:	8536                	mv	a0,a3
80003724:	85a6                	mv	a1,s1
80003726:	00ad3827          	fsd	fa0,16(s10)
8000372a:	8db6                	mv	s11,a3
8000372c:	2c5000ef          	jal	ra,800041f0 <__floatundidf>
80003730:	01f49713          	slli	a4,s1,0x1f
80003734:	001dd693          	srli	a3,s11,0x1
80003738:	8ed9                	or	a3,a3,a4
8000373a:	01b6c733          	xor	a4,a3,s11
8000373e:	077a                	slli	a4,a4,0x1e
80003740:	00e97733          	and	a4,s2,a4
80003744:	8085                	srli	s1,s1,0x1
80003746:	008d0993          	addi	s3,s10,8
8000374a:	8cd9                	or	s1,s1,a4
8000374c:	8536                	mv	a0,a3
8000374e:	85a6                	mv	a1,s1
80003750:	00a9b827          	fsd	fa0,16(s3)
80003754:	8db6                	mv	s11,a3
80003756:	29b000ef          	jal	ra,800041f0 <__floatundidf>
8000375a:	01f49713          	slli	a4,s1,0x1f
8000375e:	001dd693          	srli	a3,s11,0x1
80003762:	8ed9                	or	a3,a3,a4
80003764:	01b6c733          	xor	a4,a3,s11
80003768:	077a                	slli	a4,a4,0x1e
8000376a:	00e97733          	and	a4,s2,a4
8000376e:	8085                	srli	s1,s1,0x1
80003770:	8cd9                	or	s1,s1,a4
80003772:	00a9bc27          	fsd	fa0,24(s3)
80003776:	8536                	mv	a0,a3
80003778:	85a6                	mv	a1,s1
8000377a:	8db6                	mv	s11,a3
8000377c:	275000ef          	jal	ra,800041f0 <__floatundidf>
80003780:	02a9b027          	fsd	fa0,32(s3)
80003784:	02898d13          	addi	s10,s3,40
80003788:	f14d1ae3          	bne	s10,s4,8000369c <thread_entry+0x60>
8000378c:	f15d16e3          	bne	s10,s5,80003698 <thread_entry+0x5c>
80003790:	6a05                	lui	s4,0x1
80003792:	2c0a0a13          	addi	s4,s4,704 # 12c0 <buflen.2802+0x1240>
80003796:	9a62                	add	s4,s4,s8
80003798:	8ae2                	mv	s5,s8
8000379a:	40000937          	lui	s2,0x40000
8000379e:	0c8a8993          	addi	s3,s5,200
800037a2:	01f49713          	slli	a4,s1,0x1f
800037a6:	001dd693          	srli	a3,s11,0x1
800037aa:	8ed9                	or	a3,a3,a4
800037ac:	01b6c733          	xor	a4,a3,s11
800037b0:	077a                	slli	a4,a4,0x1e
800037b2:	00e97733          	and	a4,s2,a4
800037b6:	8085                	srli	s1,s1,0x1
800037b8:	8cd9                	or	s1,s1,a4
800037ba:	8536                	mv	a0,a3
800037bc:	85a6                	mv	a1,s1
800037be:	8db6                	mv	s11,a3
800037c0:	231000ef          	jal	ra,800041f0 <__floatundidf>
800037c4:	01f49713          	slli	a4,s1,0x1f
800037c8:	001dd693          	srli	a3,s11,0x1
800037cc:	8ed9                	or	a3,a3,a4
800037ce:	01b6c733          	xor	a4,a3,s11
800037d2:	077a                	slli	a4,a4,0x1e
800037d4:	00e97733          	and	a4,s2,a4
800037d8:	8085                	srli	s1,s1,0x1
800037da:	8cd9                	or	s1,s1,a4
800037dc:	8536                	mv	a0,a3
800037de:	85a6                	mv	a1,s1
800037e0:	00aab027          	fsd	fa0,0(s5)
800037e4:	8db6                	mv	s11,a3
800037e6:	20b000ef          	jal	ra,800041f0 <__floatundidf>
800037ea:	01f49713          	slli	a4,s1,0x1f
800037ee:	001dd693          	srli	a3,s11,0x1
800037f2:	8ed9                	or	a3,a3,a4
800037f4:	01b6c733          	xor	a4,a3,s11
800037f8:	077a                	slli	a4,a4,0x1e
800037fa:	00e97733          	and	a4,s2,a4
800037fe:	8085                	srli	s1,s1,0x1
80003800:	8cd9                	or	s1,s1,a4
80003802:	8536                	mv	a0,a3
80003804:	85a6                	mv	a1,s1
80003806:	00aab427          	fsd	fa0,8(s5)
8000380a:	8db6                	mv	s11,a3
8000380c:	1e5000ef          	jal	ra,800041f0 <__floatundidf>
80003810:	01f49713          	slli	a4,s1,0x1f
80003814:	001dd693          	srli	a3,s11,0x1
80003818:	8ed9                	or	a3,a3,a4
8000381a:	01b6c733          	xor	a4,a3,s11
8000381e:	077a                	slli	a4,a4,0x1e
80003820:	00e97733          	and	a4,s2,a4
80003824:	8085                	srli	s1,s1,0x1
80003826:	8cd9                	or	s1,s1,a4
80003828:	8536                	mv	a0,a3
8000382a:	85a6                	mv	a1,s1
8000382c:	00aab827          	fsd	fa0,16(s5)
80003830:	8db6                	mv	s11,a3
80003832:	1bf000ef          	jal	ra,800041f0 <__floatundidf>
80003836:	01f49713          	slli	a4,s1,0x1f
8000383a:	001dd693          	srli	a3,s11,0x1
8000383e:	8ed9                	or	a3,a3,a4
80003840:	01b6c733          	xor	a4,a3,s11
80003844:	077a                	slli	a4,a4,0x1e
80003846:	00e97733          	and	a4,s2,a4
8000384a:	8085                	srli	s1,s1,0x1
8000384c:	008a8d13          	addi	s10,s5,8
80003850:	8cd9                	or	s1,s1,a4
80003852:	00ad3827          	fsd	fa0,16(s10)
80003856:	8536                	mv	a0,a3
80003858:	85a6                	mv	a1,s1
8000385a:	8db6                	mv	s11,a3
8000385c:	195000ef          	jal	ra,800041f0 <__floatundidf>
80003860:	00ad3c27          	fsd	fa0,24(s10)
80003864:	020d0a93          	addi	s5,s10,32
80003868:	f3599de3          	bne	s3,s5,800037a2 <thread_entry+0x166>
8000386c:	f33a19e3          	bne	s4,s3,8000379e <thread_entry+0x162>
80003870:	6605                	lui	a2,0x1
80003872:	2c060613          	addi	a2,a2,704 # 12c0 <buflen.2802+0x1240>
80003876:	4581                	li	a1,0
80003878:	855e                	mv	a0,s7
8000387a:	7c2000ef          	jal	ra,8000403c <memset>
8000387e:	44a1                	li	s1,8
80003880:	4a65                	li	s4,25
80003882:	b0202973          	csrr	s2,minstret
80003886:	b00029f3          	csrr	s3,mcycle
8000388a:	4865                	li	a6,25
8000388c:	c052                	sw	s4,0(sp)
8000388e:	88de                	mv	a7,s7
80003890:	87e2                	mv	a5,s8
80003892:	4761                	li	a4,24
80003894:	86e6                	mv	a3,s9
80003896:	4661                	li	a2,24
80003898:	45e5                	li	a1,25
8000389a:	4561                	li	a0,24
8000389c:	edeff0ef          	jal	ra,80002f7a <mm>
800038a0:	b0202af3          	csrr	s5,minstret
800038a4:	b00027f3          	csrr	a5,mcycle
800038a8:	14fd                	addi	s1,s1,-1
800038aa:	fce1                	bnez	s1,80003882 <thread_entry+0x246>
800038ac:	413789b3          	sub	s3,a5,s3
800038b0:	0ff0000f          	fence
800038b4:	fbc42483          	lw	s1,-68(s0)
800038b8:	47e1                	li	a5,24
800038ba:	48e1                	li	a7,24
800038bc:	4865                	li	a6,25
800038be:	4719                	li	a4,6
800038c0:	4695                	li	a3,5
800038c2:	4611                	li	a2,4
800038c4:	85a6                	mv	a1,s1
800038c6:	00001517          	auipc	a0,0x1
800038ca:	39a50513          	addi	a0,a0,922 # 80004c60 <main+0x30>
800038ce:	2d7d                	jal	80003f8c <printf>
800038d0:	412a8633          	sub	a2,s5,s2
800038d4:	85a6                	mv	a1,s1
800038d6:	00001517          	auipc	a0,0x1
800038da:	3ba50513          	addi	a0,a0,954 # 80004c90 <main+0x60>
800038de:	257d                	jal	80003f8c <printf>
800038e0:	864e                	mv	a2,s3
800038e2:	85a6                	mv	a1,s1
800038e4:	00001517          	auipc	a0,0x1
800038e8:	3c450513          	addi	a0,a0,964 # 80004ca8 <main+0x78>
800038ec:	2545                	jal	80003f8c <printf>
800038ee:	661d                	lui	a2,0x7
800038f0:	08060613          	addi	a2,a2,128 # 7080 <buflen.2802+0x7000>
800038f4:	85a6                	mv	a1,s1
800038f6:	00001517          	auipc	a0,0x1
800038fa:	3c250513          	addi	a0,a0,962 # 80004cb8 <main+0x88>
800038fe:	2579                	jal	80003f8c <printf>
80003900:	01b77637          	lui	a2,0x1b77
80003904:	40060613          	addi	a2,a2,1024 # 1b77400 <buflen.2802+0x1b77380>
80003908:	03365633          	divu	a2,a2,s3
8000390c:	85a6                	mv	a1,s1
8000390e:	00001517          	auipc	a0,0x1
80003912:	3ba50513          	addi	a0,a0,954 # 80004cc8 <main+0x98>
80003916:	2d9d                	jal	80003f8c <printf>
80003918:	6e05                	lui	t3,0x1
8000391a:	4601                	li	a2,0
8000391c:	00001797          	auipc	a5,0x1
80003920:	32c7b507          	fld	fa0,812(a5) # 80004c48 <main+0x18>
80003924:	00001797          	auipc	a5,0x1
80003928:	32c7b587          	fld	fa1,812(a5) # 80004c50 <main+0x20>
8000392c:	2c0e0e13          	addi	t3,t3,704 # 12c0 <buflen.2802+0x1240>
80003930:	4ee5                	li	t4,25
80003932:	4f61                	li	t5,24
80003934:	88e2                	mv	a7,s8
80003936:	835e                	mv	t1,s7
80003938:	4681                	li	a3,0
8000393a:	d20007d3          	fcvt.d.w	fa5,zero
8000393e:	01c88833          	add	a6,a7,t3
80003942:	85c6                	mv	a1,a7
80003944:	855a                	mv	a0,s6
80003946:	2114                	fld	fa3,0(a0)
80003948:	2198                	fld	fa4,0(a1)
8000394a:	00850713          	addi	a4,a0,8
8000394e:	0c858793          	addi	a5,a1,200
80003952:	7ae6f7c3          	fmadd.d	fa5,fa3,fa4,fa5
80003956:	2514                	fld	fa3,8(a0)
80003958:	25f8                	fld	fa4,200(a1)
8000395a:	64058593          	addi	a1,a1,1600
8000395e:	04050513          	addi	a0,a0,64
80003962:	7ae6f7c3          	fmadd.d	fa5,fa3,fa4,fa5
80003966:	fd053687          	fld	fa3,-48(a0)
8000396a:	b505b707          	fld	fa4,-1200(a1)
8000396e:	7ae6f7c3          	fmadd.d	fa5,fa3,fa4,fa5
80003972:	2b14                	fld	fa3,16(a4)
80003974:	1907b707          	fld	fa4,400(a5)
80003978:	7ae6f7c3          	fmadd.d	fa5,fa3,fa4,fa5
8000397c:	2f14                	fld	fa3,24(a4)
8000397e:	2587b707          	fld	fa4,600(a5)
80003982:	7ae6f7c3          	fmadd.d	fa5,fa3,fa4,fa5
80003986:	3314                	fld	fa3,32(a4)
80003988:	3207b707          	fld	fa4,800(a5)
8000398c:	7ae6f7c3          	fmadd.d	fa5,fa3,fa4,fa5
80003990:	3714                	fld	fa3,40(a4)
80003992:	3e87b707          	fld	fa4,1000(a5)
80003996:	7ae6f7c3          	fmadd.d	fa5,fa3,fa4,fa5
8000399a:	3b14                	fld	fa3,48(a4)
8000399c:	4b07b707          	fld	fa4,1200(a5)
800039a0:	7ae6f7c3          	fmadd.d	fa5,fa3,fa4,fa5
800039a4:	fab811e3          	bne	a6,a1,80003946 <thread_entry+0x30a>
800039a8:	12a7f7d3          	fmul.d	fa5,fa5,fa0
800039ac:	00033607          	fld	fa2,0(t1)
800039b0:	12b7f6d3          	fmul.d	fa3,fa5,fa1
800039b4:	0af67753          	fsub.d	fa4,fa2,fa5
800039b8:	22d6a6d3          	fabs.d	fa3,fa3
800039bc:	22e72753          	fabs.d	fa4,fa4
800039c0:	a2e697d3          	flt.d	a5,fa3,fa4
800039c4:	eb8d                	bnez	a5,800039f6 <thread_entry+0x3ba>
800039c6:	0685                	addi	a3,a3,1
800039c8:	0321                	addi	t1,t1,8
800039ca:	08a1                	addi	a7,a7,8
800039cc:	f7d697e3          	bne	a3,t4,8000393a <thread_entry+0x2fe>
800039d0:	0605                	addi	a2,a2,1
800039d2:	0c0b0b13          	addi	s6,s6,192
800039d6:	0c8b8b93          	addi	s7,s7,200
800039da:	f5e61de3          	bne	a2,t5,80003934 <thread_entry+0x2f8>
800039de:	fb042503          	lw	a0,-80(s0)
800039e2:	3911                	jal	800035f6 <barrier>
800039e4:	deadc7b7          	lui	a5,0xdeadc
800039e8:	70707737          	lui	a4,0x70707
800039ec:	eef78793          	addi	a5,a5,-273 # deadbeef <__global_pointer$+0x5ead6aa7>
800039f0:	db3c                	sw	a5,112(a4)
800039f2:	4501                	li	a0,0
800039f4:	2b01                	jal	80003f04 <exit>
800039f6:	faf43827          	fsd	fa5,-80(s0)
800039fa:	fb042803          	lw	a6,-80(s0)
800039fe:	fb442883          	lw	a7,-76(s0)
80003a02:	fac43827          	fsd	fa2,-80(s0)
80003a06:	fb042703          	lw	a4,-80(s0)
80003a0a:	fb442783          	lw	a5,-76(s0)
80003a0e:	fbc42583          	lw	a1,-68(s0)
80003a12:	00001517          	auipc	a0,0x1
80003a16:	2ce50513          	addi	a0,a0,718 # 80004ce0 <main+0xb0>
80003a1a:	2b8d                	jal	80003f8c <printf>
80003a1c:	4505                	li	a0,1
80003a1e:	21dd                	jal	80003f04 <exit>

80003a20 <vprintfmt>:
80003a20:	714d                	addi	sp,sp,-336
80003a22:	13a12023          	sw	s10,288(sp)
80003a26:	40000d37          	lui	s10,0x40000
80003a2a:	fffd0793          	addi	a5,s10,-1 # 3fffffff <buflen.2802+0x3fffff7f>
80003a2e:	14812423          	sw	s0,328(sp)
80003a32:	14912223          	sw	s1,324(sp)
80003a36:	15212023          	sw	s2,320(sp)
80003a3a:	13512a23          	sw	s5,308(sp)
80003a3e:	14112623          	sw	ra,332(sp)
80003a42:	13312e23          	sw	s3,316(sp)
80003a46:	13412c23          	sw	s4,312(sp)
80003a4a:	13612823          	sw	s6,304(sp)
80003a4e:	13712623          	sw	s7,300(sp)
80003a52:	13812423          	sw	s8,296(sp)
80003a56:	13912223          	sw	s9,292(sp)
80003a5a:	11b12e23          	sw	s11,284(sp)
80003a5e:	892a                	mv	s2,a0
80003a60:	84ae                	mv	s1,a1
80003a62:	8432                	mv	s0,a2
80003a64:	c436                	sw	a3,8(sp)
80003a66:	02500a93          	li	s5,37
80003a6a:	c63e                	sw	a5,12(sp)
80003a6c:	a029                	j	80003a76 <vprintfmt+0x56>
80003a6e:	c521                	beqz	a0,80003ab6 <vprintfmt+0x96>
80003a70:	85a6                	mv	a1,s1
80003a72:	0405                	addi	s0,s0,1
80003a74:	9902                	jalr	s2
80003a76:	00044503          	lbu	a0,0(s0)
80003a7a:	ff551ae3          	bne	a0,s5,80003a6e <vprintfmt+0x4e>
80003a7e:	00144683          	lbu	a3,1(s0)
80003a82:	00140b13          	addi	s6,s0,1
80003a86:	875a                	mv	a4,s6
80003a88:	02000b93          	li	s7,32
80003a8c:	5a7d                	li	s4,-1
80003a8e:	59fd                	li	s3,-1
80003a90:	4581                	li	a1,0
80003a92:	05500513          	li	a0,85
80003a96:	4825                	li	a6,9
80003a98:	fdd68793          	addi	a5,a3,-35
80003a9c:	0ff7f793          	andi	a5,a5,255
80003aa0:	00170413          	addi	s0,a4,1 # 70707001 <buflen.2802+0x70706f81>
80003aa4:	26f56063          	bltu	a0,a5,80003d04 <vprintfmt+0x2e4>
80003aa8:	8f418613          	addi	a2,gp,-1804 # 80004d3c <main+0x10c>
80003aac:	078a                	slli	a5,a5,0x2
80003aae:	97b2                	add	a5,a5,a2
80003ab0:	439c                	lw	a5,0(a5)
80003ab2:	97b2                	add	a5,a5,a2
80003ab4:	8782                	jr	a5
80003ab6:	14c12083          	lw	ra,332(sp)
80003aba:	14812403          	lw	s0,328(sp)
80003abe:	14412483          	lw	s1,324(sp)
80003ac2:	14012903          	lw	s2,320(sp)
80003ac6:	13c12983          	lw	s3,316(sp)
80003aca:	13812a03          	lw	s4,312(sp)
80003ace:	13412a83          	lw	s5,308(sp)
80003ad2:	13012b03          	lw	s6,304(sp)
80003ad6:	12c12b83          	lw	s7,300(sp)
80003ada:	12812c03          	lw	s8,296(sp)
80003ade:	12412c83          	lw	s9,292(sp)
80003ae2:	12012d03          	lw	s10,288(sp)
80003ae6:	11c12d83          	lw	s11,284(sp)
80003aea:	6171                	addi	sp,sp,336
80003aec:	8082                	ret
80003aee:	4b21                	li	s6,8
80003af0:	c202                	sw	zero,4(sp)
80003af2:	4785                	li	a5,1
80003af4:	1ab7d963          	ble	a1,a5,80003ca6 <vprintfmt+0x286>
80003af8:	47a2                	lw	a5,8(sp)
80003afa:	00778c93          	addi	s9,a5,7
80003afe:	ff8cf793          	andi	a5,s9,-8
80003b02:	0007ad83          	lw	s11,0(a5)
80003b06:	0047ac03          	lw	s8,4(a5)
80003b0a:	00878713          	addi	a4,a5,8
80003b0e:	c43a                	sw	a4,8(sp)
80003b10:	865a                	mv	a2,s6
80003b12:	4681                	li	a3,0
80003b14:	856e                	mv	a0,s11
80003b16:	85e2                	mv	a1,s8
80003b18:	5cd000ef          	jal	ra,800048e4 <__umoddi3>
80003b1c:	c82a                	sw	a0,16(sp)
80003b1e:	4781                	li	a5,0
80003b20:	1f878863          	beq	a5,s8,80003d10 <vprintfmt+0x2f0>
80003b24:	01410c93          	addi	s9,sp,20
80003b28:	4a05                	li	s4,1
80003b2a:	865a                	mv	a2,s6
80003b2c:	4681                	li	a3,0
80003b2e:	856e                	mv	a0,s11
80003b30:	85e2                	mv	a1,s8
80003b32:	25d000ef          	jal	ra,8000458e <__udivdi3>
80003b36:	865a                	mv	a2,s6
80003b38:	4681                	li	a3,0
80003b3a:	8daa                	mv	s11,a0
80003b3c:	8c2e                	mv	s8,a1
80003b3e:	5a7000ef          	jal	ra,800048e4 <__umoddi3>
80003b42:	4792                	lw	a5,4(sp)
80003b44:	00aca023          	sw	a0,0(s9)
80003b48:	001a0d13          	addi	s10,s4,1
80003b4c:	0c91                	addi	s9,s9,4
80003b4e:	01878463          	beq	a5,s8,80003b56 <vprintfmt+0x136>
80003b52:	8a6a                	mv	s4,s10
80003b54:	bfd9                	j	80003b2a <vprintfmt+0x10a>
80003b56:	ff6dfee3          	bleu	s6,s11,80003b52 <vprintfmt+0x132>
80003b5a:	013d5863          	ble	s3,s10,80003b6a <vprintfmt+0x14a>
80003b5e:	19fd                	addi	s3,s3,-1
80003b60:	85a6                	mv	a1,s1
80003b62:	855e                	mv	a0,s7
80003b64:	9902                	jalr	s2
80003b66:	ff3d4ce3          	blt	s10,s3,80003b5e <vprintfmt+0x13e>
80003b6a:	002a1793          	slli	a5,s4,0x2
80003b6e:	0a18                	addi	a4,sp,272
80003b70:	97ba                	add	a5,a5,a4
80003b72:	f007a503          	lw	a0,-256(a5)
80003b76:	47b2                	lw	a5,12(sp)
80003b78:	4b25                	li	s6,9
80003b7a:	00fa09b3          	add	s3,s4,a5
80003b7e:	098a                	slli	s3,s3,0x2
80003b80:	081c                	addi	a5,sp,16
80003b82:	99be                	add	s3,s3,a5
80003b84:	a029                	j	80003b8e <vprintfmt+0x16e>
80003b86:	0009a503          	lw	a0,0(s3)
80003b8a:	1a7d                	addi	s4,s4,-1
80003b8c:	19f1                	addi	s3,s3,-4
80003b8e:	03000793          	li	a5,48
80003b92:	00ab7463          	bleu	a0,s6,80003b9a <vprintfmt+0x17a>
80003b96:	05700793          	li	a5,87
80003b9a:	85a6                	mv	a1,s1
80003b9c:	953e                	add	a0,a0,a5
80003b9e:	9902                	jalr	s2
80003ba0:	ff4043e3          	bgtz	s4,80003b86 <vprintfmt+0x166>
80003ba4:	bdc9                	j	80003a76 <vprintfmt+0x56>
80003ba6:	03000513          	li	a0,48
80003baa:	85a6                	mv	a1,s1
80003bac:	9902                	jalr	s2
80003bae:	85a6                	mv	a1,s1
80003bb0:	07800513          	li	a0,120
80003bb4:	9902                	jalr	s2
80003bb6:	47a2                	lw	a5,8(sp)
80003bb8:	4b41                	li	s6,16
80003bba:	c202                	sw	zero,4(sp)
80003bbc:	00478693          	addi	a3,a5,4
80003bc0:	47a2                	lw	a5,8(sp)
80003bc2:	4c01                	li	s8,0
80003bc4:	0007ad83          	lw	s11,0(a5)
80003bc8:	c436                	sw	a3,8(sp)
80003bca:	b799                	j	80003b10 <vprintfmt+0xf0>
80003bcc:	47a2                	lw	a5,8(sp)
80003bce:	00174683          	lbu	a3,1(a4)
80003bd2:	8722                	mv	a4,s0
80003bd4:	0007aa03          	lw	s4,0(a5)
80003bd8:	0791                	addi	a5,a5,4
80003bda:	c43e                	sw	a5,8(sp)
80003bdc:	ea09dee3          	bgez	s3,80003a98 <vprintfmt+0x78>
80003be0:	89d2                	mv	s3,s4
80003be2:	5a7d                	li	s4,-1
80003be4:	bd55                	j	80003a98 <vprintfmt+0x78>
80003be6:	00174683          	lbu	a3,1(a4)
80003bea:	02d00b93          	li	s7,45
80003bee:	8722                	mv	a4,s0
80003bf0:	b565                	j	80003a98 <vprintfmt+0x78>
80003bf2:	fff9c793          	not	a5,s3
80003bf6:	87fd                	srai	a5,a5,0x1f
80003bf8:	00174683          	lbu	a3,1(a4)
80003bfc:	00f9f9b3          	and	s3,s3,a5
80003c00:	8722                	mv	a4,s0
80003c02:	bd59                	j	80003a98 <vprintfmt+0x78>
80003c04:	00174683          	lbu	a3,1(a4)
80003c08:	03000b93          	li	s7,48
80003c0c:	8722                	mv	a4,s0
80003c0e:	b569                	j	80003a98 <vprintfmt+0x78>
80003c10:	00174603          	lbu	a2,1(a4)
80003c14:	fd068a13          	addi	s4,a3,-48
80003c18:	8722                	mv	a4,s0
80003c1a:	fd060793          	addi	a5,a2,-48
80003c1e:	86b2                	mv	a3,a2
80003c20:	faf86ee3          	bltu	a6,a5,80003bdc <vprintfmt+0x1bc>
80003c24:	002a1793          	slli	a5,s4,0x2
80003c28:	9a3e                	add	s4,s4,a5
80003c2a:	0705                	addi	a4,a4,1
80003c2c:	0a06                	slli	s4,s4,0x1
80003c2e:	9a32                	add	s4,s4,a2
80003c30:	00074603          	lbu	a2,0(a4)
80003c34:	fd0a0a13          	addi	s4,s4,-48
80003c38:	fd060793          	addi	a5,a2,-48
80003c3c:	86b2                	mv	a3,a2
80003c3e:	fef873e3          	bleu	a5,a6,80003c24 <vprintfmt+0x204>
80003c42:	bf69                	j	80003bdc <vprintfmt+0x1bc>
80003c44:	47a2                	lw	a5,8(sp)
80003c46:	85a6                	mv	a1,s1
80003c48:	4388                	lw	a0,0(a5)
80003c4a:	00478c93          	addi	s9,a5,4
80003c4e:	9902                	jalr	s2
80003c50:	c466                	sw	s9,8(sp)
80003c52:	b515                	j	80003a76 <vprintfmt+0x56>
80003c54:	4785                	li	a5,1
80003c56:	12b7d963          	ble	a1,a5,80003d88 <vprintfmt+0x368>
80003c5a:	47a2                	lw	a5,8(sp)
80003c5c:	079d                	addi	a5,a5,7
80003c5e:	9be1                	andi	a5,a5,-8
80003c60:	0007ad83          	lw	s11,0(a5)
80003c64:	0047ac03          	lw	s8,4(a5)
80003c68:	00878713          	addi	a4,a5,8
80003c6c:	c43a                	sw	a4,8(sp)
80003c6e:	000c5f63          	bgez	s8,80003c8c <vprintfmt+0x26c>
80003c72:	85a6                	mv	a1,s1
80003c74:	02d00513          	li	a0,45
80003c78:	9902                	jalr	s2
80003c7a:	41b00733          	neg	a4,s11
80003c7e:	00e036b3          	snez	a3,a4
80003c82:	418007b3          	neg	a5,s8
80003c86:	8dba                	mv	s11,a4
80003c88:	40d78c33          	sub	s8,a5,a3
80003c8c:	4b29                	li	s6,10
80003c8e:	c202                	sw	zero,4(sp)
80003c90:	b541                	j	80003b10 <vprintfmt+0xf0>
80003c92:	00174683          	lbu	a3,1(a4)
80003c96:	0585                	addi	a1,a1,1
80003c98:	8722                	mv	a4,s0
80003c9a:	bbfd                	j	80003a98 <vprintfmt+0x78>
80003c9c:	c202                	sw	zero,4(sp)
80003c9e:	4785                	li	a5,1
80003ca0:	4b29                	li	s6,10
80003ca2:	e4b7cbe3          	blt	a5,a1,80003af8 <vprintfmt+0xd8>
80003ca6:	47a2                	lw	a5,8(sp)
80003ca8:	00478693          	addi	a3,a5,4
80003cac:	bf11                	j	80003bc0 <vprintfmt+0x1a0>
80003cae:	4b41                	li	s6,16
80003cb0:	c202                	sw	zero,4(sp)
80003cb2:	b581                	j	80003af2 <vprintfmt+0xd2>
80003cb4:	00174683          	lbu	a3,1(a4)
80003cb8:	8722                	mv	a4,s0
80003cba:	bbf9                	j	80003a98 <vprintfmt+0x78>
80003cbc:	85a6                	mv	a1,s1
80003cbe:	02500513          	li	a0,37
80003cc2:	9902                	jalr	s2
80003cc4:	bb4d                	j	80003a76 <vprintfmt+0x56>
80003cc6:	47a2                	lw	a5,8(sp)
80003cc8:	0007ab03          	lw	s6,0(a5)
80003ccc:	00478c93          	addi	s9,a5,4
80003cd0:	0c0b0763          	beqz	s6,80003d9e <vprintfmt+0x37e>
80003cd4:	05305c63          	blez	s3,80003d2c <vprintfmt+0x30c>
80003cd8:	02d00793          	li	a5,45
80003cdc:	0afb8163          	beq	s7,a5,80003d7e <vprintfmt+0x35e>
80003ce0:	080a0263          	beqz	s4,80003d64 <vprintfmt+0x344>
80003ce4:	000b4783          	lbu	a5,0(s6)
80003ce8:	cfb5                	beqz	a5,80003d64 <vprintfmt+0x344>
80003cea:	001b0793          	addi	a5,s6,1
80003cee:	014b0633          	add	a2,s6,s4
80003cf2:	0cf60963          	beq	a2,a5,80003dc4 <vprintfmt+0x3a4>
80003cf6:	00178713          	addi	a4,a5,1
80003cfa:	fff74683          	lbu	a3,-1(a4)
80003cfe:	c28d                	beqz	a3,80003d20 <vprintfmt+0x300>
80003d00:	87ba                	mv	a5,a4
80003d02:	bfc5                	j	80003cf2 <vprintfmt+0x2d2>
80003d04:	85a6                	mv	a1,s1
80003d06:	02500513          	li	a0,37
80003d0a:	9902                	jalr	s2
80003d0c:	845a                	mv	s0,s6
80003d0e:	b3a5                	j	80003a76 <vprintfmt+0x56>
80003d10:	e16dfae3          	bleu	s6,s11,80003b24 <vprintfmt+0x104>
80003d14:	4785                	li	a5,1
80003d16:	4a01                	li	s4,0
80003d18:	4d05                	li	s10,1
80003d1a:	e537c2e3          	blt	a5,s3,80003b5e <vprintfmt+0x13e>
80003d1e:	bda1                	j	80003b76 <vprintfmt+0x156>
80003d20:	416787b3          	sub	a5,a5,s6
80003d24:	40f989b3          	sub	s3,s3,a5
80003d28:	03304e63          	bgtz	s3,80003d64 <vprintfmt+0x344>
80003d2c:	000b4503          	lbu	a0,0(s6)
80003d30:	c505                	beqz	a0,80003d58 <vprintfmt+0x338>
80003d32:	5bfd                	li	s7,-1
80003d34:	020a5463          	bgez	s4,80003d5c <vprintfmt+0x33c>
80003d38:	85a6                	mv	a1,s1
80003d3a:	0b05                	addi	s6,s6,1
80003d3c:	9902                	jalr	s2
80003d3e:	000b4503          	lbu	a0,0(s6)
80003d42:	19fd                	addi	s3,s3,-1
80003d44:	f965                	bnez	a0,80003d34 <vprintfmt+0x314>
80003d46:	01305963          	blez	s3,80003d58 <vprintfmt+0x338>
80003d4a:	19fd                	addi	s3,s3,-1
80003d4c:	85a6                	mv	a1,s1
80003d4e:	02000513          	li	a0,32
80003d52:	9902                	jalr	s2
80003d54:	fe099be3          	bnez	s3,80003d4a <vprintfmt+0x32a>
80003d58:	c466                	sw	s9,8(sp)
80003d5a:	bb31                	j	80003a76 <vprintfmt+0x56>
80003d5c:	1a7d                	addi	s4,s4,-1
80003d5e:	fd7a1de3          	bne	s4,s7,80003d38 <vprintfmt+0x318>
80003d62:	b7d5                	j	80003d46 <vprintfmt+0x326>
80003d64:	19fd                	addi	s3,s3,-1
80003d66:	85a6                	mv	a1,s1
80003d68:	855e                	mv	a0,s7
80003d6a:	9902                	jalr	s2
80003d6c:	fc0980e3          	beqz	s3,80003d2c <vprintfmt+0x30c>
80003d70:	19fd                	addi	s3,s3,-1
80003d72:	85a6                	mv	a1,s1
80003d74:	855e                	mv	a0,s7
80003d76:	9902                	jalr	s2
80003d78:	fe0996e3          	bnez	s3,80003d64 <vprintfmt+0x344>
80003d7c:	bf45                	j	80003d2c <vprintfmt+0x30c>
80003d7e:	000b4503          	lbu	a0,0(s6)
80003d82:	d561                	beqz	a0,80003d4a <vprintfmt+0x32a>
80003d84:	5bfd                	li	s7,-1
80003d86:	b77d                	j	80003d34 <vprintfmt+0x314>
80003d88:	4722                	lw	a4,8(sp)
80003d8a:	00470793          	addi	a5,a4,4
80003d8e:	e191                	bnez	a1,80003d92 <vprintfmt+0x372>
80003d90:	4722                	lw	a4,8(sp)
80003d92:	00072d83          	lw	s11,0(a4)
80003d96:	c43e                	sw	a5,8(sp)
80003d98:	41fddc13          	srai	s8,s11,0x1f
80003d9c:	bdc9                	j	80003c6e <vprintfmt+0x24e>
80003d9e:	01305b63          	blez	s3,80003db4 <vprintfmt+0x394>
80003da2:	02d00793          	li	a5,45
80003da6:	00fb8763          	beq	s7,a5,80003db4 <vprintfmt+0x394>
80003daa:	00001b17          	auipc	s6,0x1
80003dae:	f52b0b13          	addi	s6,s6,-174 # 80004cfc <main+0xcc>
80003db2:	b73d                	j	80003ce0 <vprintfmt+0x2c0>
80003db4:	00001b17          	auipc	s6,0x1
80003db8:	f48b0b13          	addi	s6,s6,-184 # 80004cfc <main+0xcc>
80003dbc:	02800513          	li	a0,40
80003dc0:	5bfd                	li	s7,-1
80003dc2:	bf8d                	j	80003d34 <vprintfmt+0x314>
80003dc4:	41660633          	sub	a2,a2,s6
80003dc8:	40c989b3          	sub	s3,s3,a2
80003dcc:	f9304ce3          	bgtz	s3,80003d64 <vprintfmt+0x344>
80003dd0:	bfb1                	j	80003d2c <vprintfmt+0x30c>

80003dd2 <sprintf_putch.2916>:
80003dd2:	419c                	lw	a5,0(a1)
80003dd4:	00a78023          	sb	a0,0(a5)
80003dd8:	419c                	lw	a5,0(a1)
80003dda:	0785                	addi	a5,a5,1
80003ddc:	c19c                	sw	a5,0(a1)
80003dde:	8082                	ret

80003de0 <syscall.constprop.2>:
80003de0:	7119                	addi	sp,sp,-128
80003de2:	03f10813          	addi	a6,sp,63
80003de6:	fc087813          	andi	a6,a6,-64
80003dea:	04000713          	li	a4,64
80003dee:	00e82023          	sw	a4,0(a6)
80003df2:	4781                	li	a5,0
80003df4:	00f82223          	sw	a5,4(a6)
80003df8:	4705                	li	a4,1
80003dfa:	00e82423          	sw	a4,8(a6)
80003dfe:	4781                	li	a5,0
80003e00:	00f82623          	sw	a5,12(a6)
80003e04:	00a82823          	sw	a0,16(a6)
80003e08:	00b82a23          	sw	a1,20(a6)
80003e0c:	00c82c23          	sw	a2,24(a6)
80003e10:	00d82e23          	sw	a3,28(a6)
80003e14:	0ff0000f          	fence
80003e18:	ffffd697          	auipc	a3,0xffffd
80003e1c:	1e868693          	addi	a3,a3,488 # 80001000 <tohost>
80003e20:	0106a023          	sw	a6,0(a3)
80003e24:	4781                	li	a5,0
80003e26:	c2dc                	sw	a5,4(a3)
80003e28:	ffffd697          	auipc	a3,0xffffd
80003e2c:	21868693          	addi	a3,a3,536 # 80001040 <fromhost>
80003e30:	4298                	lw	a4,0(a3)
80003e32:	42dc                	lw	a5,4(a3)
80003e34:	8f5d                	or	a4,a4,a5
80003e36:	df6d                	beqz	a4,80003e30 <syscall.constprop.2+0x50>
80003e38:	4701                	li	a4,0
80003e3a:	c298                	sw	a4,0(a3)
80003e3c:	4781                	li	a5,0
80003e3e:	c2dc                	sw	a5,4(a3)
80003e40:	0ff0000f          	fence
80003e44:	00082503          	lw	a0,0(a6)
80003e48:	00482583          	lw	a1,4(a6)
80003e4c:	6109                	addi	sp,sp,128
80003e4e:	8082                	ret

80003e50 <putchar>:
80003e50:	1141                	addi	sp,sp,-16
80003e52:	c422                	sw	s0,8(sp)
80003e54:	08022583          	lw	a1,128(tp) # 80 <buflen.2802>
80003e58:	04020793          	addi	a5,tp,64 # 40 <buf.2801>
80003e5c:	c606                	sw	ra,12(sp)
80003e5e:	97ae                	add	a5,a5,a1
80003e60:	00158613          	addi	a2,a1,1
80003e64:	00a78023          	sb	a0,0(a5)
80003e68:	08c22023          	sw	a2,128(tp) # 80 <buflen.2802>
80003e6c:	47a9                	li	a5,10
80003e6e:	00f50b63          	beq	a0,a5,80003e84 <putchar+0x34>
80003e72:	04000793          	li	a5,64
80003e76:	00f60763          	beq	a2,a5,80003e84 <putchar+0x34>
80003e7a:	40b2                	lw	ra,12(sp)
80003e7c:	4422                	lw	s0,8(sp)
80003e7e:	4501                	li	a0,0
80003e80:	0141                	addi	sp,sp,16
80003e82:	8082                	ret
80003e84:	41f65693          	srai	a3,a2,0x1f
80003e88:	04020513          	addi	a0,tp,64 # 40 <buf.2801>
80003e8c:	4581                	li	a1,0
80003e8e:	3f89                	jal	80003de0 <syscall.constprop.2>
80003e90:	08022023          	sw	zero,128(tp) # 80 <buflen.2802>
80003e94:	40b2                	lw	ra,12(sp)
80003e96:	4422                	lw	s0,8(sp)
80003e98:	4501                	li	a0,0
80003e9a:	0141                	addi	sp,sp,16
80003e9c:	8082                	ret

80003e9e <setStats>:
80003e9e:	b00027f3          	csrr	a5,mcycle
80003ea2:	bac18713          	addi	a4,gp,-1108 # 80004ff4 <counters>
80003ea6:	e909                	bnez	a0,80003eb8 <setStats+0x1a>
80003ea8:	4314                	lw	a3,0(a4)
80003eaa:	00001617          	auipc	a2,0x1
80003eae:	e5a60613          	addi	a2,a2,-422 # 80004d04 <main+0xd4>
80003eb2:	bac1a223          	sw	a2,-1116(gp) # 80004fec <counter_names>
80003eb6:	8f95                	sub	a5,a5,a3
80003eb8:	baf1a623          	sw	a5,-1108(gp) # 80004ff4 <counters>
80003ebc:	b02027f3          	csrr	a5,minstret
80003ec0:	e909                	bnez	a0,80003ed2 <setStats+0x34>
80003ec2:	4358                	lw	a4,4(a4)
80003ec4:	00001697          	auipc	a3,0x1
80003ec8:	e4868693          	addi	a3,a3,-440 # 80004d0c <main+0xdc>
80003ecc:	bad1a423          	sw	a3,-1112(gp) # 80004ff0 <counter_names+0x4>
80003ed0:	8f99                	sub	a5,a5,a4
80003ed2:	baf1a823          	sw	a5,-1104(gp) # 80004ff8 <counters+0x4>
80003ed6:	8082                	ret

80003ed8 <tohost_exit>:
80003ed8:	0506                	slli	a0,a0,0x1
80003eda:	ffffd697          	auipc	a3,0xffffd
80003ede:	12668693          	addi	a3,a3,294 # 80001000 <tohost>
80003ee2:	00156713          	ori	a4,a0,1
80003ee6:	4781                	li	a5,0
80003ee8:	c298                	sw	a4,0(a3)
80003eea:	c2dc                	sw	a5,4(a3)
80003eec:	a001                	j	80003eec <tohost_exit+0x14>

80003eee <handle_trap>:
80003eee:	6605                	lui	a2,0x1
80003ef0:	ffffd797          	auipc	a5,0xffffd
80003ef4:	11078793          	addi	a5,a5,272 # 80001000 <tohost>
80003ef8:	a7360613          	addi	a2,a2,-1421 # a73 <buflen.2802+0x9f3>
80003efc:	4681                	li	a3,0
80003efe:	c390                	sw	a2,0(a5)
80003f00:	c3d4                	sw	a3,4(a5)
80003f02:	a001                	j	80003f02 <handle_trap+0x14>

80003f04 <exit>:
80003f04:	1141                	addi	sp,sp,-16
80003f06:	c606                	sw	ra,12(sp)
80003f08:	3fc1                	jal	80003ed8 <tohost_exit>

80003f0a <abort>:
80003f0a:	ffffd797          	auipc	a5,0xffffd
80003f0e:	0f678793          	addi	a5,a5,246 # 80001000 <tohost>
80003f12:	10d00613          	li	a2,269
80003f16:	4681                	li	a3,0
80003f18:	c390                	sw	a2,0(a5)
80003f1a:	c3d4                	sw	a3,4(a5)
80003f1c:	a001                	j	80003f1c <abort+0x12>

80003f1e <printstr>:
80003f1e:	00054783          	lbu	a5,0(a0)
80003f22:	862a                	mv	a2,a0
80003f24:	cb89                	beqz	a5,80003f36 <printstr+0x18>
80003f26:	0605                	addi	a2,a2,1
80003f28:	00064783          	lbu	a5,0(a2)
80003f2c:	ffed                	bnez	a5,80003f26 <printstr+0x8>
80003f2e:	8e09                	sub	a2,a2,a0
80003f30:	4681                	li	a3,0
80003f32:	4581                	li	a1,0
80003f34:	b575                	j	80003de0 <syscall.constprop.2>
80003f36:	4601                	li	a2,0
80003f38:	4681                	li	a3,0
80003f3a:	4581                	li	a1,0
80003f3c:	b555                	j	80003de0 <syscall.constprop.2>
80003f3e:	c111                	beqz	a0,80003f42 <printstr+0x24>
80003f40:	a001                	j	80003f40 <printstr+0x22>
80003f42:	8082                	ret

80003f44 <printhex>:
80003f44:	7179                	addi	sp,sp,-48
80003f46:	d606                	sw	ra,44(sp)
80003f48:	01b10793          	addi	a5,sp,27
80003f4c:	00b10313          	addi	t1,sp,11
80003f50:	48a5                	li	a7,9
80003f52:	00f57693          	andi	a3,a0,15
80003f56:	01c59813          	slli	a6,a1,0x1c
80003f5a:	8111                	srli	a0,a0,0x4
80003f5c:	05700613          	li	a2,87
80003f60:	0ff6f713          	andi	a4,a3,255
80003f64:	00d8e463          	bltu	a7,a3,80003f6c <printhex+0x28>
80003f68:	03000613          	li	a2,48
80003f6c:	9732                	add	a4,a4,a2
80003f6e:	00e78023          	sb	a4,0(a5)
80003f72:	17fd                	addi	a5,a5,-1
80003f74:	00a86533          	or	a0,a6,a0
80003f78:	8191                	srli	a1,a1,0x4
80003f7a:	fcf31ce3          	bne	t1,a5,80003f52 <printhex+0xe>
80003f7e:	0068                	addi	a0,sp,12
80003f80:	00010e23          	sb	zero,28(sp)
80003f84:	3f69                	jal	80003f1e <printstr>
80003f86:	50b2                	lw	ra,44(sp)
80003f88:	6145                	addi	sp,sp,48
80003f8a:	8082                	ret

80003f8c <printf>:
80003f8c:	7139                	addi	sp,sp,-64
80003f8e:	02410313          	addi	t1,sp,36
80003f92:	d22e                	sw	a1,36(sp)
80003f94:	d432                	sw	a2,40(sp)
80003f96:	d636                	sw	a3,44(sp)
80003f98:	862a                	mv	a2,a0
80003f9a:	869a                	mv	a3,t1
80003f9c:	00000517          	auipc	a0,0x0
80003fa0:	eb450513          	addi	a0,a0,-332 # 80003e50 <putchar>
80003fa4:	4581                	li	a1,0
80003fa6:	ce06                	sw	ra,28(sp)
80003fa8:	d83a                	sw	a4,48(sp)
80003faa:	da3e                	sw	a5,52(sp)
80003fac:	dc42                	sw	a6,56(sp)
80003fae:	de46                	sw	a7,60(sp)
80003fb0:	c61a                	sw	t1,12(sp)
80003fb2:	34bd                	jal	80003a20 <vprintfmt>
80003fb4:	40f2                	lw	ra,28(sp)
80003fb6:	4501                	li	a0,0
80003fb8:	6121                	addi	sp,sp,64
80003fba:	8082                	ret

80003fbc <sprintf>:
80003fbc:	715d                	addi	sp,sp,-80
80003fbe:	03810313          	addi	t1,sp,56
80003fc2:	d422                	sw	s0,40(sp)
80003fc4:	c62a                	sw	a0,12(sp)
80003fc6:	dc32                	sw	a2,56(sp)
80003fc8:	de36                	sw	a3,60(sp)
80003fca:	842a                	mv	s0,a0
80003fcc:	862e                	mv	a2,a1
80003fce:	00000517          	auipc	a0,0x0
80003fd2:	e0450513          	addi	a0,a0,-508 # 80003dd2 <sprintf_putch.2916>
80003fd6:	006c                	addi	a1,sp,12
80003fd8:	869a                	mv	a3,t1
80003fda:	d606                	sw	ra,44(sp)
80003fdc:	c2be                	sw	a5,68(sp)
80003fde:	c0ba                	sw	a4,64(sp)
80003fe0:	c4c2                	sw	a6,72(sp)
80003fe2:	c6c6                	sw	a7,76(sp)
80003fe4:	ce1a                	sw	t1,28(sp)
80003fe6:	3c2d                	jal	80003a20 <vprintfmt>
80003fe8:	47b2                	lw	a5,12(sp)
80003fea:	00078023          	sb	zero,0(a5)
80003fee:	4532                	lw	a0,12(sp)
80003ff0:	50b2                	lw	ra,44(sp)
80003ff2:	8d01                	sub	a0,a0,s0
80003ff4:	5422                	lw	s0,40(sp)
80003ff6:	6161                	addi	sp,sp,80
80003ff8:	8082                	ret

80003ffa <memcpy>:
80003ffa:	00c5e7b3          	or	a5,a1,a2
80003ffe:	8fc9                	or	a5,a5,a0
80004000:	8b8d                	andi	a5,a5,3
80004002:	00c506b3          	add	a3,a0,a2
80004006:	cf91                	beqz	a5,80004022 <memcpy+0x28>
80004008:	962e                	add	a2,a2,a1
8000400a:	87aa                	mv	a5,a0
8000400c:	02d57763          	bleu	a3,a0,8000403a <memcpy+0x40>
80004010:	0585                	addi	a1,a1,1
80004012:	fff5c703          	lbu	a4,-1(a1)
80004016:	0785                	addi	a5,a5,1
80004018:	fee78fa3          	sb	a4,-1(a5)
8000401c:	feb61ae3          	bne	a2,a1,80004010 <memcpy+0x16>
80004020:	8082                	ret
80004022:	fed57fe3          	bleu	a3,a0,80004020 <memcpy+0x26>
80004026:	87aa                	mv	a5,a0
80004028:	0591                	addi	a1,a1,4
8000402a:	ffc5a703          	lw	a4,-4(a1)
8000402e:	0791                	addi	a5,a5,4
80004030:	fee7ae23          	sw	a4,-4(a5)
80004034:	fed7eae3          	bltu	a5,a3,80004028 <memcpy+0x2e>
80004038:	8082                	ret
8000403a:	8082                	ret

8000403c <memset>:
8000403c:	00c567b3          	or	a5,a0,a2
80004040:	8b8d                	andi	a5,a5,3
80004042:	962a                	add	a2,a2,a0
80004044:	cf81                	beqz	a5,8000405c <memset+0x20>
80004046:	0ff5f593          	andi	a1,a1,255
8000404a:	87aa                	mv	a5,a0
8000404c:	02c57963          	bleu	a2,a0,8000407e <memset+0x42>
80004050:	0785                	addi	a5,a5,1
80004052:	feb78fa3          	sb	a1,-1(a5)
80004056:	fef61de3          	bne	a2,a5,80004050 <memset+0x14>
8000405a:	8082                	ret
8000405c:	0ff5f593          	andi	a1,a1,255
80004060:	00859713          	slli	a4,a1,0x8
80004064:	8f4d                	or	a4,a4,a1
80004066:	01071793          	slli	a5,a4,0x10
8000406a:	8f5d                	or	a4,a4,a5
8000406c:	fec577e3          	bleu	a2,a0,8000405a <memset+0x1e>
80004070:	87aa                	mv	a5,a0
80004072:	0791                	addi	a5,a5,4
80004074:	fee7ae23          	sw	a4,-4(a5)
80004078:	fec7ede3          	bltu	a5,a2,80004072 <memset+0x36>
8000407c:	8082                	ret
8000407e:	8082                	ret

80004080 <_init>:
80004080:	7135                	addi	sp,sp,-160
80004082:	bb418793          	addi	a5,gp,-1100 # 80004ffc <_tdata_begin>
80004086:	c94a                	sw	s2,144(sp)
80004088:	bb418913          	addi	s2,gp,-1100 # 80004ffc <_tdata_begin>
8000408c:	cb26                	sw	s1,148(sp)
8000408e:	40f904b3          	sub	s1,s2,a5
80004092:	8626                	mv	a2,s1
80004094:	c74e                	sw	s3,140(sp)
80004096:	c552                	sw	s4,136(sp)
80004098:	89aa                	mv	s3,a0
8000409a:	8a2e                	mv	s4,a1
8000409c:	8512                	mv	a0,tp
8000409e:	85be                	mv	a1,a5
800040a0:	cf06                	sw	ra,156(sp)
800040a2:	cd22                	sw	s0,152(sp)
800040a4:	c356                	sw	s5,132(sp)
800040a6:	8a92                	mv	s5,tp
800040a8:	3f89                	jal	80003ffa <memcpy>
800040aa:	c3c18613          	addi	a2,gp,-964 # 80005084 <_tbss_end>
800040ae:	41260633          	sub	a2,a2,s2
800040b2:	4581                	li	a1,0
800040b4:	009a8533          	add	a0,s5,s1
800040b8:	3751                	jal	8000403c <memset>
800040ba:	85d2                	mv	a1,s4
800040bc:	854e                	mv	a0,s3
800040be:	d7eff0ef          	jal	ra,8000363c <thread_entry>
800040c2:	4581                	li	a1,0
800040c4:	4501                	li	a0,0
800040c6:	36b000ef          	jal	ra,80004c30 <main>
800040ca:	bac18493          	addi	s1,gp,-1108 # 80004ff4 <counters>
800040ce:	4094                	lw	a3,0(s1)
800040d0:	03f10413          	addi	s0,sp,63
800040d4:	fc047413          	andi	s0,s0,-64
800040d8:	892a                	mv	s2,a0
800040da:	e695                	bnez	a3,80004106 <_init+0x86>
800040dc:	40d4                	lw	a3,4(s1)
800040de:	e299                	bnez	a3,800040e4 <_init+0x64>
800040e0:	854a                	mv	a0,s2
800040e2:	3bdd                	jal	80003ed8 <tohost_exit>
800040e4:	84a2                	mv	s1,s0
800040e6:	ba418993          	addi	s3,gp,-1116 # 80004fec <counter_names>
800040ea:	0049a603          	lw	a2,4(s3)
800040ee:	8526                	mv	a0,s1
800040f0:	00001597          	auipc	a1,0x1
800040f4:	c4058593          	addi	a1,a1,-960 # 80004d30 <main+0x100>
800040f8:	35d1                	jal	80003fbc <sprintf>
800040fa:	94aa                	add	s1,s1,a0
800040fc:	fe9402e3          	beq	s0,s1,800040e0 <_init+0x60>
80004100:	8522                	mv	a0,s0
80004102:	3d31                	jal	80003f1e <printstr>
80004104:	bff1                	j	800040e0 <_init+0x60>
80004106:	ba418993          	addi	s3,gp,-1116 # 80004fec <counter_names>
8000410a:	0009a603          	lw	a2,0(s3)
8000410e:	00001597          	auipc	a1,0x1
80004112:	c2258593          	addi	a1,a1,-990 # 80004d30 <main+0x100>
80004116:	8522                	mv	a0,s0
80004118:	3555                	jal	80003fbc <sprintf>
8000411a:	40d4                	lw	a3,4(s1)
8000411c:	00a404b3          	add	s1,s0,a0
80004120:	def1                	beqz	a3,800040fc <_init+0x7c>
80004122:	b7e1                	j	800040ea <_init+0x6a>

80004124 <strlen>:
80004124:	00054783          	lbu	a5,0(a0)
80004128:	872a                	mv	a4,a0
8000412a:	c799                	beqz	a5,80004138 <strlen+0x14>
8000412c:	0505                	addi	a0,a0,1
8000412e:	00054783          	lbu	a5,0(a0)
80004132:	ffed                	bnez	a5,8000412c <strlen+0x8>
80004134:	8d19                	sub	a0,a0,a4
80004136:	8082                	ret
80004138:	4501                	li	a0,0
8000413a:	8082                	ret

8000413c <strnlen>:
8000413c:	872a                	mv	a4,a0
8000413e:	cd91                	beqz	a1,8000415a <strnlen+0x1e>
80004140:	00054783          	lbu	a5,0(a0)
80004144:	cb99                	beqz	a5,8000415a <strnlen+0x1e>
80004146:	95aa                	add	a1,a1,a0
80004148:	a021                	j	80004150 <strnlen+0x14>
8000414a:	00054783          	lbu	a5,0(a0)
8000414e:	c781                	beqz	a5,80004156 <strnlen+0x1a>
80004150:	0505                	addi	a0,a0,1
80004152:	feb51ce3          	bne	a0,a1,8000414a <strnlen+0xe>
80004156:	8d19                	sub	a0,a0,a4
80004158:	8082                	ret
8000415a:	4501                	li	a0,0
8000415c:	8082                	ret

8000415e <strcmp>:
8000415e:	0505                	addi	a0,a0,1
80004160:	fff54783          	lbu	a5,-1(a0)
80004164:	0585                	addi	a1,a1,1
80004166:	fff5c703          	lbu	a4,-1(a1)
8000416a:	c791                	beqz	a5,80004176 <strcmp+0x18>
8000416c:	fee789e3          	beq	a5,a4,8000415e <strcmp>
80004170:	40e78533          	sub	a0,a5,a4
80004174:	8082                	ret
80004176:	4781                	li	a5,0
80004178:	bfe5                	j	80004170 <strcmp+0x12>

8000417a <strcpy>:
8000417a:	87aa                	mv	a5,a0
8000417c:	0585                	addi	a1,a1,1
8000417e:	fff5c703          	lbu	a4,-1(a1)
80004182:	0785                	addi	a5,a5,1
80004184:	fee78fa3          	sb	a4,-1(a5)
80004188:	fb75                	bnez	a4,8000417c <strcpy+0x2>
8000418a:	8082                	ret

8000418c <atol>:
8000418c:	00054783          	lbu	a5,0(a0)
80004190:	02000713          	li	a4,32
80004194:	00e79763          	bne	a5,a4,800041a2 <atol+0x16>
80004198:	0505                	addi	a0,a0,1
8000419a:	00054783          	lbu	a5,0(a0)
8000419e:	fee78de3          	beq	a5,a4,80004198 <atol+0xc>
800041a2:	fd578713          	addi	a4,a5,-43
800041a6:	0fd77713          	andi	a4,a4,253
800041aa:	c715                	beqz	a4,800041d6 <atol+0x4a>
800041ac:	00054683          	lbu	a3,0(a0)
800041b0:	87aa                	mv	a5,a0
800041b2:	4601                	li	a2,0
800041b4:	ce85                	beqz	a3,800041ec <atol+0x60>
800041b6:	4501                	li	a0,0
800041b8:	0785                	addi	a5,a5,1
800041ba:	fd068593          	addi	a1,a3,-48
800041be:	00251713          	slli	a4,a0,0x2
800041c2:	0007c683          	lbu	a3,0(a5)
800041c6:	953a                	add	a0,a0,a4
800041c8:	0506                	slli	a0,a0,0x1
800041ca:	952e                	add	a0,a0,a1
800041cc:	f6f5                	bnez	a3,800041b8 <atol+0x2c>
800041ce:	c219                	beqz	a2,800041d4 <atol+0x48>
800041d0:	40a00533          	neg	a0,a0
800041d4:	8082                	ret
800041d6:	00154683          	lbu	a3,1(a0)
800041da:	fd378793          	addi	a5,a5,-45
800041de:	0017b613          	seqz	a2,a5
800041e2:	00150793          	addi	a5,a0,1
800041e6:	fae1                	bnez	a3,800041b6 <atol+0x2a>
800041e8:	4501                	li	a0,0
800041ea:	b7d5                	j	800041ce <atol+0x42>
800041ec:	4501                	li	a0,0
800041ee:	8082                	ret

800041f0 <__floatundidf>:
800041f0:	800057b7          	lui	a5,0x80005
800041f4:	d2158553          	fcvt.d.wu	fa0,a1
800041f8:	d21507d3          	fcvt.d.wu	fa5,a0
800041fc:	c587b707          	fld	fa4,-936(a5) # 80004c58 <__global_pointer$+0xfffff810>
80004200:	7ae57543          	fmadd.d	fa0,fa0,fa4,fa5
80004204:	8082                	ret

80004206 <__moddi3>:
80004206:	4881                	li	a7,0
80004208:	0005da63          	bgez	a1,8000421c <__moddi3+0x16>
8000420c:	40a00533          	neg	a0,a0
80004210:	00a037b3          	snez	a5,a0
80004214:	40b005b3          	neg	a1,a1
80004218:	8d9d                	sub	a1,a1,a5
8000421a:	58fd                	li	a7,-1
8000421c:	0006d963          	bgez	a3,8000422e <__moddi3+0x28>
80004220:	40c00633          	neg	a2,a2
80004224:	00c037b3          	snez	a5,a2
80004228:	40d006b3          	neg	a3,a3
8000422c:	8e9d                	sub	a3,a3,a5
8000422e:	8832                	mv	a6,a2
80004230:	8336                	mv	t1,a3
80004232:	87aa                	mv	a5,a0
80004234:	872e                	mv	a4,a1
80004236:	1c069f63          	bnez	a3,80004414 <__moddi3+0x20e>
8000423a:	a4c18693          	addi	a3,gp,-1460 # 80004e94 <__clz_tab>
8000423e:	0cc5f163          	bleu	a2,a1,80004300 <__moddi3+0xfa>
80004242:	6e41                	lui	t3,0x10
80004244:	0bc67763          	bleu	t3,a2,800042f2 <__moddi3+0xec>
80004248:	0ff00e13          	li	t3,255
8000424c:	00ce7363          	bleu	a2,t3,80004252 <__moddi3+0x4c>
80004250:	4321                	li	t1,8
80004252:	00665e33          	srl	t3,a2,t1
80004256:	96f2                	add	a3,a3,t3
80004258:	0006ce03          	lbu	t3,0(a3)
8000425c:	9e1a                	add	t3,t3,t1
8000425e:	02000313          	li	t1,32
80004262:	41c30333          	sub	t1,t1,t3
80004266:	00030c63          	beqz	t1,8000427e <__moddi3+0x78>
8000426a:	006595b3          	sll	a1,a1,t1
8000426e:	01c55e33          	srl	t3,a0,t3
80004272:	00661833          	sll	a6,a2,t1
80004276:	00be6733          	or	a4,t3,a1
8000427a:	006517b3          	sll	a5,a0,t1
8000427e:	01085593          	srli	a1,a6,0x10
80004282:	02b77633          	remu	a2,a4,a1
80004286:	01081513          	slli	a0,a6,0x10
8000428a:	8141                	srli	a0,a0,0x10
8000428c:	0107d693          	srli	a3,a5,0x10
80004290:	02b75733          	divu	a4,a4,a1
80004294:	0642                	slli	a2,a2,0x10
80004296:	8ed1                	or	a3,a3,a2
80004298:	02e50733          	mul	a4,a0,a4
8000429c:	00e6f863          	bleu	a4,a3,800042ac <__moddi3+0xa6>
800042a0:	96c2                	add	a3,a3,a6
800042a2:	0106e563          	bltu	a3,a6,800042ac <__moddi3+0xa6>
800042a6:	00e6f363          	bleu	a4,a3,800042ac <__moddi3+0xa6>
800042aa:	96c2                	add	a3,a3,a6
800042ac:	8e99                	sub	a3,a3,a4
800042ae:	02b6f733          	remu	a4,a3,a1
800042b2:	07c2                	slli	a5,a5,0x10
800042b4:	83c1                	srli	a5,a5,0x10
800042b6:	02b6d6b3          	divu	a3,a3,a1
800042ba:	02d506b3          	mul	a3,a0,a3
800042be:	01071513          	slli	a0,a4,0x10
800042c2:	8fc9                	or	a5,a5,a0
800042c4:	00d7f863          	bleu	a3,a5,800042d4 <__moddi3+0xce>
800042c8:	97c2                	add	a5,a5,a6
800042ca:	0107e563          	bltu	a5,a6,800042d4 <__moddi3+0xce>
800042ce:	00d7f363          	bleu	a3,a5,800042d4 <__moddi3+0xce>
800042d2:	97c2                	add	a5,a5,a6
800042d4:	8f95                	sub	a5,a5,a3
800042d6:	0067d533          	srl	a0,a5,t1
800042da:	4581                	li	a1,0
800042dc:	00088a63          	beqz	a7,800042f0 <__moddi3+0xea>
800042e0:	40a007b3          	neg	a5,a0
800042e4:	00f03733          	snez	a4,a5
800042e8:	40b005b3          	neg	a1,a1
800042ec:	853e                	mv	a0,a5
800042ee:	8d99                	sub	a1,a1,a4
800042f0:	8082                	ret
800042f2:	01000e37          	lui	t3,0x1000
800042f6:	4341                	li	t1,16
800042f8:	f5c66de3          	bltu	a2,t3,80004252 <__moddi3+0x4c>
800042fc:	4361                	li	t1,24
800042fe:	bf91                	j	80004252 <__moddi3+0x4c>
80004300:	e601                	bnez	a2,80004308 <__moddi3+0x102>
80004302:	4805                	li	a6,1
80004304:	02685833          	divu	a6,a6,t1
80004308:	6741                	lui	a4,0x10
8000430a:	08e87363          	bleu	a4,a6,80004390 <__moddi3+0x18a>
8000430e:	0ff00713          	li	a4,255
80004312:	01077363          	bleu	a6,a4,80004318 <__moddi3+0x112>
80004316:	4321                	li	t1,8
80004318:	00685733          	srl	a4,a6,t1
8000431c:	96ba                	add	a3,a3,a4
8000431e:	0006ce03          	lbu	t3,0(a3)
80004322:	9e1a                	add	t3,t3,t1
80004324:	02000313          	li	t1,32
80004328:	41c30333          	sub	t1,t1,t3
8000432c:	06031963          	bnez	t1,8000439e <__moddi3+0x198>
80004330:	410585b3          	sub	a1,a1,a6
80004334:	01085693          	srli	a3,a6,0x10
80004338:	01081513          	slli	a0,a6,0x10
8000433c:	8141                	srli	a0,a0,0x10
8000433e:	0107d613          	srli	a2,a5,0x10
80004342:	02d5f733          	remu	a4,a1,a3
80004346:	02d5d5b3          	divu	a1,a1,a3
8000434a:	0742                	slli	a4,a4,0x10
8000434c:	8f51                	or	a4,a4,a2
8000434e:	02b505b3          	mul	a1,a0,a1
80004352:	00b77863          	bleu	a1,a4,80004362 <__moddi3+0x15c>
80004356:	9742                	add	a4,a4,a6
80004358:	01076563          	bltu	a4,a6,80004362 <__moddi3+0x15c>
8000435c:	00b77363          	bleu	a1,a4,80004362 <__moddi3+0x15c>
80004360:	9742                	add	a4,a4,a6
80004362:	40b705b3          	sub	a1,a4,a1
80004366:	02d5f733          	remu	a4,a1,a3
8000436a:	07c2                	slli	a5,a5,0x10
8000436c:	83c1                	srli	a5,a5,0x10
8000436e:	02d5d5b3          	divu	a1,a1,a3
80004372:	02b505b3          	mul	a1,a0,a1
80004376:	01071513          	slli	a0,a4,0x10
8000437a:	8fc9                	or	a5,a5,a0
8000437c:	00b7f863          	bleu	a1,a5,8000438c <__moddi3+0x186>
80004380:	97c2                	add	a5,a5,a6
80004382:	0107e563          	bltu	a5,a6,8000438c <__moddi3+0x186>
80004386:	00b7f363          	bleu	a1,a5,8000438c <__moddi3+0x186>
8000438a:	97c2                	add	a5,a5,a6
8000438c:	8f8d                	sub	a5,a5,a1
8000438e:	b7a1                	j	800042d6 <__moddi3+0xd0>
80004390:	01000737          	lui	a4,0x1000
80004394:	4341                	li	t1,16
80004396:	f8e861e3          	bltu	a6,a4,80004318 <__moddi3+0x112>
8000439a:	4361                	li	t1,24
8000439c:	bfb5                	j	80004318 <__moddi3+0x112>
8000439e:	00681833          	sll	a6,a6,t1
800043a2:	01c5deb3          	srl	t4,a1,t3
800043a6:	006517b3          	sll	a5,a0,t1
800043aa:	01c55e33          	srl	t3,a0,t3
800043ae:	01085513          	srli	a0,a6,0x10
800043b2:	02aed6b3          	divu	a3,t4,a0
800043b6:	006595b3          	sll	a1,a1,t1
800043ba:	00be6e33          	or	t3,t3,a1
800043be:	01081593          	slli	a1,a6,0x10
800043c2:	81c1                	srli	a1,a1,0x10
800043c4:	010e5613          	srli	a2,t3,0x10
800043c8:	02aef733          	remu	a4,t4,a0
800043cc:	02d586b3          	mul	a3,a1,a3
800043d0:	0742                	slli	a4,a4,0x10
800043d2:	8f51                	or	a4,a4,a2
800043d4:	00d77863          	bleu	a3,a4,800043e4 <__moddi3+0x1de>
800043d8:	9742                	add	a4,a4,a6
800043da:	01076563          	bltu	a4,a6,800043e4 <__moddi3+0x1de>
800043de:	00d77363          	bleu	a3,a4,800043e4 <__moddi3+0x1de>
800043e2:	9742                	add	a4,a4,a6
800043e4:	40d70633          	sub	a2,a4,a3
800043e8:	02a67733          	remu	a4,a2,a0
800043ec:	0e42                	slli	t3,t3,0x10
800043ee:	010e5e13          	srli	t3,t3,0x10
800043f2:	02a65633          	divu	a2,a2,a0
800043f6:	0742                	slli	a4,a4,0x10
800043f8:	02c58633          	mul	a2,a1,a2
800043fc:	01c765b3          	or	a1,a4,t3
80004400:	00c5f863          	bleu	a2,a1,80004410 <__moddi3+0x20a>
80004404:	95c2                	add	a1,a1,a6
80004406:	0105e563          	bltu	a1,a6,80004410 <__moddi3+0x20a>
8000440a:	00c5f363          	bleu	a2,a1,80004410 <__moddi3+0x20a>
8000440e:	95c2                	add	a1,a1,a6
80004410:	8d91                	sub	a1,a1,a2
80004412:	b70d                	j	80004334 <__moddi3+0x12e>
80004414:	ecd5e4e3          	bltu	a1,a3,800042dc <__moddi3+0xd6>
80004418:	6841                	lui	a6,0x10
8000441a:	0506f463          	bleu	a6,a3,80004462 <__moddi3+0x25c>
8000441e:	0ff00e93          	li	t4,255
80004422:	00deb833          	sltu	a6,t4,a3
80004426:	080e                	slli	a6,a6,0x3
80004428:	a4c18e13          	addi	t3,gp,-1460 # 80004e94 <__clz_tab>
8000442c:	0106d333          	srl	t1,a3,a6
80004430:	9372                	add	t1,t1,t3
80004432:	00034e83          	lbu	t4,0(t1)
80004436:	02000e13          	li	t3,32
8000443a:	9ec2                	add	t4,t4,a6
8000443c:	41de0e33          	sub	t3,t3,t4
80004440:	020e1863          	bnez	t3,80004470 <__moddi3+0x26a>
80004444:	00b6e463          	bltu	a3,a1,8000444c <__moddi3+0x246>
80004448:	00c56a63          	bltu	a0,a2,8000445c <__moddi3+0x256>
8000444c:	40c507b3          	sub	a5,a0,a2
80004450:	40d586b3          	sub	a3,a1,a3
80004454:	00f53533          	sltu	a0,a0,a5
80004458:	40a68733          	sub	a4,a3,a0
8000445c:	853e                	mv	a0,a5
8000445e:	85ba                	mv	a1,a4
80004460:	bdb5                	j	800042dc <__moddi3+0xd6>
80004462:	01000337          	lui	t1,0x1000
80004466:	4841                	li	a6,16
80004468:	fc66e0e3          	bltu	a3,t1,80004428 <__moddi3+0x222>
8000446c:	4861                	li	a6,24
8000446e:	bf6d                	j	80004428 <__moddi3+0x222>
80004470:	01d65733          	srl	a4,a2,t4
80004474:	01c696b3          	sll	a3,a3,t3
80004478:	8ed9                	or	a3,a3,a4
8000447a:	01d5d7b3          	srl	a5,a1,t4
8000447e:	01d55733          	srl	a4,a0,t4
80004482:	01c595b3          	sll	a1,a1,t3
80004486:	8f4d                	or	a4,a4,a1
80004488:	0106d593          	srli	a1,a3,0x10
8000448c:	02b7f333          	remu	t1,a5,a1
80004490:	01069f13          	slli	t5,a3,0x10
80004494:	010f5f13          	srli	t5,t5,0x10
80004498:	01075813          	srli	a6,a4,0x10
8000449c:	01c61633          	sll	a2,a2,t3
800044a0:	01c51533          	sll	a0,a0,t3
800044a4:	02b7d7b3          	divu	a5,a5,a1
800044a8:	0342                	slli	t1,t1,0x10
800044aa:	01036833          	or	a6,t1,a6
800044ae:	02ff0fb3          	mul	t6,t5,a5
800044b2:	833e                	mv	t1,a5
800044b4:	01f87c63          	bleu	t6,a6,800044cc <__moddi3+0x2c6>
800044b8:	9836                	add	a6,a6,a3
800044ba:	fff78313          	addi	t1,a5,-1
800044be:	00d86763          	bltu	a6,a3,800044cc <__moddi3+0x2c6>
800044c2:	01f87563          	bleu	t6,a6,800044cc <__moddi3+0x2c6>
800044c6:	ffe78313          	addi	t1,a5,-2
800044ca:	9836                	add	a6,a6,a3
800044cc:	41f80833          	sub	a6,a6,t6
800044d0:	02b87fb3          	remu	t6,a6,a1
800044d4:	02b85833          	divu	a6,a6,a1
800044d8:	0fc2                	slli	t6,t6,0x10
800044da:	030f05b3          	mul	a1,t5,a6
800044de:	01071f13          	slli	t5,a4,0x10
800044e2:	010f5f13          	srli	t5,t5,0x10
800044e6:	01efef33          	or	t5,t6,t5
800044ea:	8742                	mv	a4,a6
800044ec:	00bf7c63          	bleu	a1,t5,80004504 <__moddi3+0x2fe>
800044f0:	9f36                	add	t5,t5,a3
800044f2:	fff80713          	addi	a4,a6,-1 # ffff <buflen.2802+0xff7f>
800044f6:	00df6763          	bltu	t5,a3,80004504 <__moddi3+0x2fe>
800044fa:	00bf7563          	bleu	a1,t5,80004504 <__moddi3+0x2fe>
800044fe:	ffe80713          	addi	a4,a6,-2
80004502:	9f36                	add	t5,t5,a3
80004504:	0342                	slli	t1,t1,0x10
80004506:	6fc1                	lui	t6,0x10
80004508:	00e36333          	or	t1,t1,a4
8000450c:	ffff8793          	addi	a5,t6,-1 # ffff <buflen.2802+0xff7f>
80004510:	01065813          	srli	a6,a2,0x10
80004514:	40bf0f33          	sub	t5,t5,a1
80004518:	00f375b3          	and	a1,t1,a5
8000451c:	01035313          	srli	t1,t1,0x10
80004520:	8ff1                	and	a5,a5,a2
80004522:	02f58733          	mul	a4,a1,a5
80004526:	02f307b3          	mul	a5,t1,a5
8000452a:	030585b3          	mul	a1,a1,a6
8000452e:	03030333          	mul	t1,t1,a6
80004532:	95be                	add	a1,a1,a5
80004534:	01075813          	srli	a6,a4,0x10
80004538:	982e                	add	a6,a6,a1
8000453a:	00f87363          	bleu	a5,a6,80004540 <__moddi3+0x33a>
8000453e:	937e                	add	t1,t1,t6
80004540:	67c1                	lui	a5,0x10
80004542:	17fd                	addi	a5,a5,-1
80004544:	01085593          	srli	a1,a6,0x10
80004548:	00f87833          	and	a6,a6,a5
8000454c:	0842                	slli	a6,a6,0x10
8000454e:	8f7d                	and	a4,a4,a5
80004550:	959a                	add	a1,a1,t1
80004552:	9742                	add	a4,a4,a6
80004554:	00bf6663          	bltu	t5,a1,80004560 <__moddi3+0x35a>
80004558:	00bf1b63          	bne	t5,a1,8000456e <__moddi3+0x368>
8000455c:	00e57963          	bleu	a4,a0,8000456e <__moddi3+0x368>
80004560:	40c70633          	sub	a2,a4,a2
80004564:	00c73733          	sltu	a4,a4,a2
80004568:	8d95                	sub	a1,a1,a3
8000456a:	8d99                	sub	a1,a1,a4
8000456c:	8732                	mv	a4,a2
8000456e:	40e50733          	sub	a4,a0,a4
80004572:	00e53533          	sltu	a0,a0,a4
80004576:	40bf05b3          	sub	a1,t5,a1
8000457a:	8d89                	sub	a1,a1,a0
8000457c:	01d597b3          	sll	a5,a1,t4
80004580:	01c75733          	srl	a4,a4,t3
80004584:	00e7e533          	or	a0,a5,a4
80004588:	01c5d5b3          	srl	a1,a1,t3
8000458c:	bb81                	j	800042dc <__moddi3+0xd6>

8000458e <__udivdi3>:
8000458e:	87ae                	mv	a5,a1
80004590:	8832                	mv	a6,a2
80004592:	88b6                	mv	a7,a3
80004594:	832a                	mv	t1,a0
80004596:	20069463          	bnez	a3,8000479e <__udivdi3+0x210>
8000459a:	a4c18713          	addi	a4,gp,-1460 # 80004e94 <__clz_tab>
8000459e:	0ac5fe63          	bleu	a2,a1,8000465a <__udivdi3+0xcc>
800045a2:	66c1                	lui	a3,0x10
800045a4:	0ad67463          	bleu	a3,a2,8000464c <__udivdi3+0xbe>
800045a8:	0ff00693          	li	a3,255
800045ac:	00c6b6b3          	sltu	a3,a3,a2
800045b0:	068e                	slli	a3,a3,0x3
800045b2:	00d658b3          	srl	a7,a2,a3
800045b6:	9746                	add	a4,a4,a7
800045b8:	00074703          	lbu	a4,0(a4) # 1000000 <buflen.2802+0xffff80>
800045bc:	96ba                	add	a3,a3,a4
800045be:	02000713          	li	a4,32
800045c2:	8f15                	sub	a4,a4,a3
800045c4:	cb19                	beqz	a4,800045da <__udivdi3+0x4c>
800045c6:	00e797b3          	sll	a5,a5,a4
800045ca:	00d556b3          	srl	a3,a0,a3
800045ce:	00e61833          	sll	a6,a2,a4
800045d2:	00f6e5b3          	or	a1,a3,a5
800045d6:	00e51333          	sll	t1,a0,a4
800045da:	01085513          	srli	a0,a6,0x10
800045de:	02a5d7b3          	divu	a5,a1,a0
800045e2:	01081613          	slli	a2,a6,0x10
800045e6:	8241                	srli	a2,a2,0x10
800045e8:	01035693          	srli	a3,t1,0x10
800045ec:	02a5f733          	remu	a4,a1,a0
800045f0:	02f605b3          	mul	a1,a2,a5
800045f4:	0742                	slli	a4,a4,0x10
800045f6:	8ed9                	or	a3,a3,a4
800045f8:	873e                	mv	a4,a5
800045fa:	00b6fc63          	bleu	a1,a3,80004612 <__udivdi3+0x84>
800045fe:	96c2                	add	a3,a3,a6
80004600:	fff78713          	addi	a4,a5,-1 # ffff <buflen.2802+0xff7f>
80004604:	0106e763          	bltu	a3,a6,80004612 <__udivdi3+0x84>
80004608:	00b6f563          	bleu	a1,a3,80004612 <__udivdi3+0x84>
8000460c:	ffe78713          	addi	a4,a5,-2
80004610:	96c2                	add	a3,a3,a6
80004612:	8e8d                	sub	a3,a3,a1
80004614:	02a6f7b3          	remu	a5,a3,a0
80004618:	0342                	slli	t1,t1,0x10
8000461a:	01035313          	srli	t1,t1,0x10
8000461e:	02a6d6b3          	divu	a3,a3,a0
80004622:	07c2                	slli	a5,a5,0x10
80004624:	0067e333          	or	t1,a5,t1
80004628:	02d605b3          	mul	a1,a2,a3
8000462c:	8536                	mv	a0,a3
8000462e:	00b37b63          	bleu	a1,t1,80004644 <__udivdi3+0xb6>
80004632:	9342                	add	t1,t1,a6
80004634:	fff68513          	addi	a0,a3,-1 # ffff <buflen.2802+0xff7f>
80004638:	01036663          	bltu	t1,a6,80004644 <__udivdi3+0xb6>
8000463c:	00b37463          	bleu	a1,t1,80004644 <__udivdi3+0xb6>
80004640:	ffe68513          	addi	a0,a3,-2
80004644:	0742                	slli	a4,a4,0x10
80004646:	8f49                	or	a4,a4,a0
80004648:	4581                	li	a1,0
8000464a:	a84d                	j	800046fc <__udivdi3+0x16e>
8000464c:	010008b7          	lui	a7,0x1000
80004650:	46c1                	li	a3,16
80004652:	f71660e3          	bltu	a2,a7,800045b2 <__udivdi3+0x24>
80004656:	46e1                	li	a3,24
80004658:	bfa9                	j	800045b2 <__udivdi3+0x24>
8000465a:	e601                	bnez	a2,80004662 <__udivdi3+0xd4>
8000465c:	4685                	li	a3,1
8000465e:	02c6d833          	divu	a6,a3,a2
80004662:	66c1                	lui	a3,0x10
80004664:	08d87e63          	bleu	a3,a6,80004700 <__udivdi3+0x172>
80004668:	0ff00693          	li	a3,255
8000466c:	0106f363          	bleu	a6,a3,80004672 <__udivdi3+0xe4>
80004670:	48a1                	li	a7,8
80004672:	011856b3          	srl	a3,a6,a7
80004676:	9736                	add	a4,a4,a3
80004678:	00074683          	lbu	a3,0(a4)
8000467c:	02000713          	li	a4,32
80004680:	96c6                	add	a3,a3,a7
80004682:	8f15                	sub	a4,a4,a3
80004684:	e749                	bnez	a4,8000470e <__udivdi3+0x180>
80004686:	410787b3          	sub	a5,a5,a6
8000468a:	4585                	li	a1,1
8000468c:	01085613          	srli	a2,a6,0x10
80004690:	01081893          	slli	a7,a6,0x10
80004694:	0108d893          	srli	a7,a7,0x10
80004698:	01035693          	srli	a3,t1,0x10
8000469c:	02c7f733          	remu	a4,a5,a2
800046a0:	02c7d7b3          	divu	a5,a5,a2
800046a4:	0742                	slli	a4,a4,0x10
800046a6:	8ed9                	or	a3,a3,a4
800046a8:	02f88533          	mul	a0,a7,a5
800046ac:	873e                	mv	a4,a5
800046ae:	00a6fc63          	bleu	a0,a3,800046c6 <__udivdi3+0x138>
800046b2:	96c2                	add	a3,a3,a6
800046b4:	fff78713          	addi	a4,a5,-1
800046b8:	0106e763          	bltu	a3,a6,800046c6 <__udivdi3+0x138>
800046bc:	00a6f563          	bleu	a0,a3,800046c6 <__udivdi3+0x138>
800046c0:	ffe78713          	addi	a4,a5,-2
800046c4:	96c2                	add	a3,a3,a6
800046c6:	8e89                	sub	a3,a3,a0
800046c8:	02c6f7b3          	remu	a5,a3,a2
800046cc:	0342                	slli	t1,t1,0x10
800046ce:	01035313          	srli	t1,t1,0x10
800046d2:	02c6d6b3          	divu	a3,a3,a2
800046d6:	07c2                	slli	a5,a5,0x10
800046d8:	0067e333          	or	t1,a5,t1
800046dc:	02d888b3          	mul	a7,a7,a3
800046e0:	8536                	mv	a0,a3
800046e2:	01137b63          	bleu	a7,t1,800046f8 <__udivdi3+0x16a>
800046e6:	9342                	add	t1,t1,a6
800046e8:	fff68513          	addi	a0,a3,-1 # ffff <buflen.2802+0xff7f>
800046ec:	01036663          	bltu	t1,a6,800046f8 <__udivdi3+0x16a>
800046f0:	01137463          	bleu	a7,t1,800046f8 <__udivdi3+0x16a>
800046f4:	ffe68513          	addi	a0,a3,-2
800046f8:	0742                	slli	a4,a4,0x10
800046fa:	8f49                	or	a4,a4,a0
800046fc:	853a                	mv	a0,a4
800046fe:	8082                	ret
80004700:	010006b7          	lui	a3,0x1000
80004704:	48c1                	li	a7,16
80004706:	f6d866e3          	bltu	a6,a3,80004672 <__udivdi3+0xe4>
8000470a:	48e1                	li	a7,24
8000470c:	b79d                	j	80004672 <__udivdi3+0xe4>
8000470e:	00e81833          	sll	a6,a6,a4
80004712:	00d7d5b3          	srl	a1,a5,a3
80004716:	00e51333          	sll	t1,a0,a4
8000471a:	00d556b3          	srl	a3,a0,a3
8000471e:	01085513          	srli	a0,a6,0x10
80004722:	00e797b3          	sll	a5,a5,a4
80004726:	02a5f733          	remu	a4,a1,a0
8000472a:	00f6e8b3          	or	a7,a3,a5
8000472e:	01081793          	slli	a5,a6,0x10
80004732:	83c1                	srli	a5,a5,0x10
80004734:	0108d613          	srli	a2,a7,0x10
80004738:	02a5d5b3          	divu	a1,a1,a0
8000473c:	0742                	slli	a4,a4,0x10
8000473e:	8f51                	or	a4,a4,a2
80004740:	02b786b3          	mul	a3,a5,a1
80004744:	862e                	mv	a2,a1
80004746:	00d77c63          	bleu	a3,a4,8000475e <__udivdi3+0x1d0>
8000474a:	9742                	add	a4,a4,a6
8000474c:	fff58613          	addi	a2,a1,-1
80004750:	01076763          	bltu	a4,a6,8000475e <__udivdi3+0x1d0>
80004754:	00d77563          	bleu	a3,a4,8000475e <__udivdi3+0x1d0>
80004758:	ffe58613          	addi	a2,a1,-2
8000475c:	9742                	add	a4,a4,a6
8000475e:	40d706b3          	sub	a3,a4,a3
80004762:	02a6f733          	remu	a4,a3,a0
80004766:	08c2                	slli	a7,a7,0x10
80004768:	0108d893          	srli	a7,a7,0x10
8000476c:	02a6d6b3          	divu	a3,a3,a0
80004770:	0742                	slli	a4,a4,0x10
80004772:	02d785b3          	mul	a1,a5,a3
80004776:	011767b3          	or	a5,a4,a7
8000477a:	8736                	mv	a4,a3
8000477c:	00b7fc63          	bleu	a1,a5,80004794 <__udivdi3+0x206>
80004780:	97c2                	add	a5,a5,a6
80004782:	fff68713          	addi	a4,a3,-1 # ffffff <buflen.2802+0xffff7f>
80004786:	0107e763          	bltu	a5,a6,80004794 <__udivdi3+0x206>
8000478a:	00b7f563          	bleu	a1,a5,80004794 <__udivdi3+0x206>
8000478e:	ffe68713          	addi	a4,a3,-2
80004792:	97c2                	add	a5,a5,a6
80004794:	8f8d                	sub	a5,a5,a1
80004796:	01061593          	slli	a1,a2,0x10
8000479a:	8dd9                	or	a1,a1,a4
8000479c:	bdc5                	j	8000468c <__udivdi3+0xfe>
8000479e:	14d5e063          	bltu	a1,a3,800048de <__udivdi3+0x350>
800047a2:	6741                	lui	a4,0x10
800047a4:	02e6fc63          	bleu	a4,a3,800047dc <__udivdi3+0x24e>
800047a8:	0ff00813          	li	a6,255
800047ac:	00d83733          	sltu	a4,a6,a3
800047b0:	070e                	slli	a4,a4,0x3
800047b2:	a4c18813          	addi	a6,gp,-1460 # 80004e94 <__clz_tab>
800047b6:	00e6d5b3          	srl	a1,a3,a4
800047ba:	95c2                	add	a1,a1,a6
800047bc:	0005c803          	lbu	a6,0(a1)
800047c0:	02000593          	li	a1,32
800047c4:	983a                	add	a6,a6,a4
800047c6:	410585b3          	sub	a1,a1,a6
800047ca:	e185                	bnez	a1,800047ea <__udivdi3+0x25c>
800047cc:	4705                	li	a4,1
800047ce:	f2f6e7e3          	bltu	a3,a5,800046fc <__udivdi3+0x16e>
800047d2:	00c53533          	sltu	a0,a0,a2
800047d6:	00154713          	xori	a4,a0,1
800047da:	b70d                	j	800046fc <__udivdi3+0x16e>
800047dc:	010005b7          	lui	a1,0x1000
800047e0:	4741                	li	a4,16
800047e2:	fcb6e8e3          	bltu	a3,a1,800047b2 <__udivdi3+0x224>
800047e6:	4761                	li	a4,24
800047e8:	b7e9                	j	800047b2 <__udivdi3+0x224>
800047ea:	01065733          	srl	a4,a2,a6
800047ee:	00b696b3          	sll	a3,a3,a1
800047f2:	8ed9                	or	a3,a3,a4
800047f4:	0106de93          	srli	t4,a3,0x10
800047f8:	0107d733          	srl	a4,a5,a6
800047fc:	03d778b3          	remu	a7,a4,t4
80004800:	00b797b3          	sll	a5,a5,a1
80004804:	01055833          	srl	a6,a0,a6
80004808:	00f86333          	or	t1,a6,a5
8000480c:	01069793          	slli	a5,a3,0x10
80004810:	83c1                	srli	a5,a5,0x10
80004812:	01035813          	srli	a6,t1,0x10
80004816:	00b61633          	sll	a2,a2,a1
8000481a:	03d75733          	divu	a4,a4,t4
8000481e:	08c2                	slli	a7,a7,0x10
80004820:	0108e833          	or	a6,a7,a6
80004824:	02e78f33          	mul	t5,a5,a4
80004828:	8e3a                	mv	t3,a4
8000482a:	01e87c63          	bleu	t5,a6,80004842 <__udivdi3+0x2b4>
8000482e:	9836                	add	a6,a6,a3
80004830:	fff70e13          	addi	t3,a4,-1 # ffff <buflen.2802+0xff7f>
80004834:	00d86763          	bltu	a6,a3,80004842 <__udivdi3+0x2b4>
80004838:	01e87563          	bleu	t5,a6,80004842 <__udivdi3+0x2b4>
8000483c:	ffe70e13          	addi	t3,a4,-2
80004840:	9836                	add	a6,a6,a3
80004842:	41e80833          	sub	a6,a6,t5
80004846:	03d878b3          	remu	a7,a6,t4
8000484a:	03d85833          	divu	a6,a6,t4
8000484e:	08c2                	slli	a7,a7,0x10
80004850:	03078eb3          	mul	t4,a5,a6
80004854:	01031793          	slli	a5,t1,0x10
80004858:	83c1                	srli	a5,a5,0x10
8000485a:	00f8e7b3          	or	a5,a7,a5
8000485e:	8742                	mv	a4,a6
80004860:	01d7fc63          	bleu	t4,a5,80004878 <__udivdi3+0x2ea>
80004864:	97b6                	add	a5,a5,a3
80004866:	fff80713          	addi	a4,a6,-1
8000486a:	00d7e763          	bltu	a5,a3,80004878 <__udivdi3+0x2ea>
8000486e:	01d7f563          	bleu	t4,a5,80004878 <__udivdi3+0x2ea>
80004872:	ffe80713          	addi	a4,a6,-2
80004876:	97b6                	add	a5,a5,a3
80004878:	0e42                	slli	t3,t3,0x10
8000487a:	41d787b3          	sub	a5,a5,t4
8000487e:	6ec1                	lui	t4,0x10
80004880:	00ee6733          	or	a4,t3,a4
80004884:	fffe8813          	addi	a6,t4,-1 # ffff <buflen.2802+0xff7f>
80004888:	01077333          	and	t1,a4,a6
8000488c:	01075893          	srli	a7,a4,0x10
80004890:	01067833          	and	a6,a2,a6
80004894:	8241                	srli	a2,a2,0x10
80004896:	03030e33          	mul	t3,t1,a6
8000489a:	03088833          	mul	a6,a7,a6
8000489e:	010e5693          	srli	a3,t3,0x10
800048a2:	02c30333          	mul	t1,t1,a2
800048a6:	9342                	add	t1,t1,a6
800048a8:	969a                	add	a3,a3,t1
800048aa:	02c888b3          	mul	a7,a7,a2
800048ae:	0106f363          	bleu	a6,a3,800048b4 <__udivdi3+0x326>
800048b2:	98f6                	add	a7,a7,t4
800048b4:	0106d613          	srli	a2,a3,0x10
800048b8:	98b2                	add	a7,a7,a2
800048ba:	0317e063          	bltu	a5,a7,800048da <__udivdi3+0x34c>
800048be:	d91795e3          	bne	a5,a7,80004648 <__udivdi3+0xba>
800048c2:	67c1                	lui	a5,0x10
800048c4:	17fd                	addi	a5,a5,-1
800048c6:	8efd                	and	a3,a3,a5
800048c8:	06c2                	slli	a3,a3,0x10
800048ca:	00fe7e33          	and	t3,t3,a5
800048ce:	00b51533          	sll	a0,a0,a1
800048d2:	96f2                	add	a3,a3,t3
800048d4:	4581                	li	a1,0
800048d6:	e2d573e3          	bleu	a3,a0,800046fc <__udivdi3+0x16e>
800048da:	177d                	addi	a4,a4,-1
800048dc:	b3b5                	j	80004648 <__udivdi3+0xba>
800048de:	4581                	li	a1,0
800048e0:	4701                	li	a4,0
800048e2:	bd29                	j	800046fc <__udivdi3+0x16e>

800048e4 <__umoddi3>:
800048e4:	88b2                	mv	a7,a2
800048e6:	8736                	mv	a4,a3
800048e8:	87aa                	mv	a5,a0
800048ea:	882e                	mv	a6,a1
800048ec:	1c069663          	bnez	a3,80004ab8 <__umoddi3+0x1d4>
800048f0:	a4c18693          	addi	a3,gp,-1460 # 80004e94 <__clz_tab>
800048f4:	0ac5f863          	bleu	a2,a1,800049a4 <__umoddi3+0xc0>
800048f8:	6341                	lui	t1,0x10
800048fa:	08667e63          	bleu	t1,a2,80004996 <__umoddi3+0xb2>
800048fe:	0ff00313          	li	t1,255
80004902:	00c37363          	bleu	a2,t1,80004908 <__umoddi3+0x24>
80004906:	4721                	li	a4,8
80004908:	00e65333          	srl	t1,a2,a4
8000490c:	969a                	add	a3,a3,t1
8000490e:	0006ce03          	lbu	t3,0(a3)
80004912:	02000313          	li	t1,32
80004916:	9e3a                	add	t3,t3,a4
80004918:	41c30333          	sub	t1,t1,t3
8000491c:	00030c63          	beqz	t1,80004934 <__umoddi3+0x50>
80004920:	006595b3          	sll	a1,a1,t1
80004924:	01c55e33          	srl	t3,a0,t3
80004928:	006618b3          	sll	a7,a2,t1
8000492c:	00be6833          	or	a6,t3,a1
80004930:	006517b3          	sll	a5,a0,t1
80004934:	0108d613          	srli	a2,a7,0x10
80004938:	02c87733          	remu	a4,a6,a2
8000493c:	01089513          	slli	a0,a7,0x10
80004940:	8141                	srli	a0,a0,0x10
80004942:	0107d693          	srli	a3,a5,0x10
80004946:	02c85833          	divu	a6,a6,a2
8000494a:	0742                	slli	a4,a4,0x10
8000494c:	8ed9                	or	a3,a3,a4
8000494e:	03050833          	mul	a6,a0,a6
80004952:	0106f863          	bleu	a6,a3,80004962 <__umoddi3+0x7e>
80004956:	96c6                	add	a3,a3,a7
80004958:	0116e563          	bltu	a3,a7,80004962 <__umoddi3+0x7e>
8000495c:	0106f363          	bleu	a6,a3,80004962 <__umoddi3+0x7e>
80004960:	96c6                	add	a3,a3,a7
80004962:	410686b3          	sub	a3,a3,a6
80004966:	02c6f733          	remu	a4,a3,a2
8000496a:	07c2                	slli	a5,a5,0x10
8000496c:	83c1                	srli	a5,a5,0x10
8000496e:	02c6d6b3          	divu	a3,a3,a2
80004972:	02d506b3          	mul	a3,a0,a3
80004976:	01071513          	slli	a0,a4,0x10
8000497a:	8fc9                	or	a5,a5,a0
8000497c:	00d7f863          	bleu	a3,a5,8000498c <__umoddi3+0xa8>
80004980:	97c6                	add	a5,a5,a7
80004982:	0117e563          	bltu	a5,a7,8000498c <__umoddi3+0xa8>
80004986:	00d7f363          	bleu	a3,a5,8000498c <__umoddi3+0xa8>
8000498a:	97c6                	add	a5,a5,a7
8000498c:	8f95                	sub	a5,a5,a3
8000498e:	0067d533          	srl	a0,a5,t1
80004992:	4581                	li	a1,0
80004994:	8082                	ret
80004996:	01000337          	lui	t1,0x1000
8000499a:	4741                	li	a4,16
8000499c:	f66666e3          	bltu	a2,t1,80004908 <__umoddi3+0x24>
800049a0:	4761                	li	a4,24
800049a2:	b79d                	j	80004908 <__umoddi3+0x24>
800049a4:	e601                	bnez	a2,800049ac <__umoddi3+0xc8>
800049a6:	4605                	li	a2,1
800049a8:	031658b3          	divu	a7,a2,a7
800049ac:	6641                	lui	a2,0x10
800049ae:	08c8f363          	bleu	a2,a7,80004a34 <__umoddi3+0x150>
800049b2:	0ff00613          	li	a2,255
800049b6:	01167363          	bleu	a7,a2,800049bc <__umoddi3+0xd8>
800049ba:	4721                	li	a4,8
800049bc:	00e8d633          	srl	a2,a7,a4
800049c0:	96b2                	add	a3,a3,a2
800049c2:	0006ce03          	lbu	t3,0(a3)
800049c6:	02000313          	li	t1,32
800049ca:	9e3a                	add	t3,t3,a4
800049cc:	41c30333          	sub	t1,t1,t3
800049d0:	06031963          	bnez	t1,80004a42 <__umoddi3+0x15e>
800049d4:	411585b3          	sub	a1,a1,a7
800049d8:	0108d713          	srli	a4,a7,0x10
800049dc:	01089513          	slli	a0,a7,0x10
800049e0:	8141                	srli	a0,a0,0x10
800049e2:	0107d613          	srli	a2,a5,0x10
800049e6:	02e5f6b3          	remu	a3,a1,a4
800049ea:	02e5d5b3          	divu	a1,a1,a4
800049ee:	06c2                	slli	a3,a3,0x10
800049f0:	8ed1                	or	a3,a3,a2
800049f2:	02b505b3          	mul	a1,a0,a1
800049f6:	00b6f863          	bleu	a1,a3,80004a06 <__umoddi3+0x122>
800049fa:	96c6                	add	a3,a3,a7
800049fc:	0116e563          	bltu	a3,a7,80004a06 <__umoddi3+0x122>
80004a00:	00b6f363          	bleu	a1,a3,80004a06 <__umoddi3+0x122>
80004a04:	96c6                	add	a3,a3,a7
80004a06:	40b685b3          	sub	a1,a3,a1
80004a0a:	02e5f6b3          	remu	a3,a1,a4
80004a0e:	07c2                	slli	a5,a5,0x10
80004a10:	83c1                	srli	a5,a5,0x10
80004a12:	02e5d5b3          	divu	a1,a1,a4
80004a16:	02b505b3          	mul	a1,a0,a1
80004a1a:	01069513          	slli	a0,a3,0x10
80004a1e:	8fc9                	or	a5,a5,a0
80004a20:	00b7f863          	bleu	a1,a5,80004a30 <__umoddi3+0x14c>
80004a24:	97c6                	add	a5,a5,a7
80004a26:	0117e563          	bltu	a5,a7,80004a30 <__umoddi3+0x14c>
80004a2a:	00b7f363          	bleu	a1,a5,80004a30 <__umoddi3+0x14c>
80004a2e:	97c6                	add	a5,a5,a7
80004a30:	8f8d                	sub	a5,a5,a1
80004a32:	bfb1                	j	8000498e <__umoddi3+0xaa>
80004a34:	01000637          	lui	a2,0x1000
80004a38:	4741                	li	a4,16
80004a3a:	f8c8e1e3          	bltu	a7,a2,800049bc <__umoddi3+0xd8>
80004a3e:	4761                	li	a4,24
80004a40:	bfb5                	j	800049bc <__umoddi3+0xd8>
80004a42:	006898b3          	sll	a7,a7,t1
80004a46:	01c5d733          	srl	a4,a1,t3
80004a4a:	006517b3          	sll	a5,a0,t1
80004a4e:	01c55e33          	srl	t3,a0,t3
80004a52:	0108d513          	srli	a0,a7,0x10
80004a56:	02a776b3          	remu	a3,a4,a0
80004a5a:	006595b3          	sll	a1,a1,t1
80004a5e:	00be6e33          	or	t3,t3,a1
80004a62:	01089593          	slli	a1,a7,0x10
80004a66:	81c1                	srli	a1,a1,0x10
80004a68:	010e5613          	srli	a2,t3,0x10
80004a6c:	02a75733          	divu	a4,a4,a0
80004a70:	06c2                	slli	a3,a3,0x10
80004a72:	8ed1                	or	a3,a3,a2
80004a74:	02e58733          	mul	a4,a1,a4
80004a78:	00e6f863          	bleu	a4,a3,80004a88 <__umoddi3+0x1a4>
80004a7c:	96c6                	add	a3,a3,a7
80004a7e:	0116e563          	bltu	a3,a7,80004a88 <__umoddi3+0x1a4>
80004a82:	00e6f363          	bleu	a4,a3,80004a88 <__umoddi3+0x1a4>
80004a86:	96c6                	add	a3,a3,a7
80004a88:	40e68633          	sub	a2,a3,a4
80004a8c:	02a676b3          	remu	a3,a2,a0
80004a90:	0e42                	slli	t3,t3,0x10
80004a92:	010e5e13          	srli	t3,t3,0x10
80004a96:	02a65633          	divu	a2,a2,a0
80004a9a:	06c2                	slli	a3,a3,0x10
80004a9c:	02c58633          	mul	a2,a1,a2
80004aa0:	01c6e5b3          	or	a1,a3,t3
80004aa4:	00c5f863          	bleu	a2,a1,80004ab4 <__umoddi3+0x1d0>
80004aa8:	95c6                	add	a1,a1,a7
80004aaa:	0115e563          	bltu	a1,a7,80004ab4 <__umoddi3+0x1d0>
80004aae:	00c5f363          	bleu	a2,a1,80004ab4 <__umoddi3+0x1d0>
80004ab2:	95c6                	add	a1,a1,a7
80004ab4:	8d91                	sub	a1,a1,a2
80004ab6:	b70d                	j	800049d8 <__umoddi3+0xf4>
80004ab8:	ecd5eee3          	bltu	a1,a3,80004994 <__umoddi3+0xb0>
80004abc:	6741                	lui	a4,0x10
80004abe:	04e6f363          	bleu	a4,a3,80004b04 <__umoddi3+0x220>
80004ac2:	0ff00e93          	li	t4,255
80004ac6:	00deb733          	sltu	a4,t4,a3
80004aca:	070e                	slli	a4,a4,0x3
80004acc:	00e6d8b3          	srl	a7,a3,a4
80004ad0:	a4c18313          	addi	t1,gp,-1460 # 80004e94 <__clz_tab>
80004ad4:	989a                	add	a7,a7,t1
80004ad6:	0008ce83          	lbu	t4,0(a7) # 1000000 <buflen.2802+0xffff80>
80004ada:	02000e13          	li	t3,32
80004ade:	9eba                	add	t4,t4,a4
80004ae0:	41de0e33          	sub	t3,t3,t4
80004ae4:	020e1763          	bnez	t3,80004b12 <__umoddi3+0x22e>
80004ae8:	00b6e463          	bltu	a3,a1,80004af0 <__umoddi3+0x20c>
80004aec:	00c56963          	bltu	a0,a2,80004afe <__umoddi3+0x21a>
80004af0:	40c507b3          	sub	a5,a0,a2
80004af4:	8d95                	sub	a1,a1,a3
80004af6:	00f53533          	sltu	a0,a0,a5
80004afa:	40a58833          	sub	a6,a1,a0
80004afe:	853e                	mv	a0,a5
80004b00:	85c2                	mv	a1,a6
80004b02:	bd49                	j	80004994 <__umoddi3+0xb0>
80004b04:	010008b7          	lui	a7,0x1000
80004b08:	4741                	li	a4,16
80004b0a:	fd16e1e3          	bltu	a3,a7,80004acc <__umoddi3+0x1e8>
80004b0e:	4761                	li	a4,24
80004b10:	bf75                	j	80004acc <__umoddi3+0x1e8>
80004b12:	01d65733          	srl	a4,a2,t4
80004b16:	01c696b3          	sll	a3,a3,t3
80004b1a:	8ed9                	or	a3,a3,a4
80004b1c:	01d557b3          	srl	a5,a0,t4
80004b20:	01d5d733          	srl	a4,a1,t4
80004b24:	01c595b3          	sll	a1,a1,t3
80004b28:	8fcd                	or	a5,a5,a1
80004b2a:	0106d593          	srli	a1,a3,0x10
80004b2e:	02b77333          	remu	t1,a4,a1
80004b32:	01069f13          	slli	t5,a3,0x10
80004b36:	010f5f13          	srli	t5,t5,0x10
80004b3a:	0107d893          	srli	a7,a5,0x10
80004b3e:	01c61633          	sll	a2,a2,t3
80004b42:	01c51533          	sll	a0,a0,t3
80004b46:	02b75733          	divu	a4,a4,a1
80004b4a:	0342                	slli	t1,t1,0x10
80004b4c:	011368b3          	or	a7,t1,a7
80004b50:	02ef0833          	mul	a6,t5,a4
80004b54:	833a                	mv	t1,a4
80004b56:	0108fc63          	bleu	a6,a7,80004b6e <__umoddi3+0x28a>
80004b5a:	98b6                	add	a7,a7,a3
80004b5c:	fff70313          	addi	t1,a4,-1 # ffff <buflen.2802+0xff7f>
80004b60:	00d8e763          	bltu	a7,a3,80004b6e <__umoddi3+0x28a>
80004b64:	0108f563          	bleu	a6,a7,80004b6e <__umoddi3+0x28a>
80004b68:	ffe70313          	addi	t1,a4,-2
80004b6c:	98b6                	add	a7,a7,a3
80004b6e:	410888b3          	sub	a7,a7,a6
80004b72:	02b8ffb3          	remu	t6,a7,a1
80004b76:	02b8d8b3          	divu	a7,a7,a1
80004b7a:	0fc2                	slli	t6,t6,0x10
80004b7c:	031f05b3          	mul	a1,t5,a7
80004b80:	01079f13          	slli	t5,a5,0x10
80004b84:	010f5f13          	srli	t5,t5,0x10
80004b88:	01efef33          	or	t5,t6,t5
80004b8c:	8746                	mv	a4,a7
80004b8e:	00bf7c63          	bleu	a1,t5,80004ba6 <__umoddi3+0x2c2>
80004b92:	9f36                	add	t5,t5,a3
80004b94:	fff88713          	addi	a4,a7,-1 # ffffff <buflen.2802+0xffff7f>
80004b98:	00df6763          	bltu	t5,a3,80004ba6 <__umoddi3+0x2c2>
80004b9c:	00bf7563          	bleu	a1,t5,80004ba6 <__umoddi3+0x2c2>
80004ba0:	ffe88713          	addi	a4,a7,-2
80004ba4:	9f36                	add	t5,t5,a3
80004ba6:	0342                	slli	t1,t1,0x10
80004ba8:	68c1                	lui	a7,0x10
80004baa:	00e36333          	or	t1,t1,a4
80004bae:	fff88793          	addi	a5,a7,-1 # ffff <buflen.2802+0xff7f>
80004bb2:	01065813          	srli	a6,a2,0x10
80004bb6:	40bf0f33          	sub	t5,t5,a1
80004bba:	00f375b3          	and	a1,t1,a5
80004bbe:	01035313          	srli	t1,t1,0x10
80004bc2:	8ff1                	and	a5,a5,a2
80004bc4:	02f58733          	mul	a4,a1,a5
80004bc8:	02f307b3          	mul	a5,t1,a5
80004bcc:	030585b3          	mul	a1,a1,a6
80004bd0:	03030333          	mul	t1,t1,a6
80004bd4:	95be                	add	a1,a1,a5
80004bd6:	01075813          	srli	a6,a4,0x10
80004bda:	982e                	add	a6,a6,a1
80004bdc:	00f87363          	bleu	a5,a6,80004be2 <__umoddi3+0x2fe>
80004be0:	9346                	add	t1,t1,a7
80004be2:	67c1                	lui	a5,0x10
80004be4:	17fd                	addi	a5,a5,-1
80004be6:	01085593          	srli	a1,a6,0x10
80004bea:	00f87833          	and	a6,a6,a5
80004bee:	0842                	slli	a6,a6,0x10
80004bf0:	8f7d                	and	a4,a4,a5
80004bf2:	959a                	add	a1,a1,t1
80004bf4:	9742                	add	a4,a4,a6
80004bf6:	00bf6663          	bltu	t5,a1,80004c02 <__umoddi3+0x31e>
80004bfa:	00bf1b63          	bne	t5,a1,80004c10 <__umoddi3+0x32c>
80004bfe:	00e57963          	bleu	a4,a0,80004c10 <__umoddi3+0x32c>
80004c02:	40c70633          	sub	a2,a4,a2
80004c06:	00c73733          	sltu	a4,a4,a2
80004c0a:	8d95                	sub	a1,a1,a3
80004c0c:	8d99                	sub	a1,a1,a4
80004c0e:	8732                	mv	a4,a2
80004c10:	40e50733          	sub	a4,a0,a4
80004c14:	00e53533          	sltu	a0,a0,a4
80004c18:	40bf05b3          	sub	a1,t5,a1
80004c1c:	8d89                	sub	a1,a1,a0
80004c1e:	01d597b3          	sll	a5,a1,t4
80004c22:	01c75733          	srl	a4,a4,t3
80004c26:	00e7e533          	or	a0,a5,a4
80004c2a:	01c5d5b3          	srl	a1,a1,t3
80004c2e:	b39d                	j	80004994 <__umoddi3+0xb0>

Disassembly of section .text.startup:

80004c30 <main>:
80004c30:	1141                	addi	sp,sp,-16
80004c32:	00000517          	auipc	a0,0x0
80004c36:	0e650513          	addi	a0,a0,230 # 80004d18 <main+0xe8>
80004c3a:	c606                	sw	ra,12(sp)
80004c3c:	ae2ff0ef          	jal	ra,80003f1e <printstr>
80004c40:	40b2                	lw	ra,12(sp)
80004c42:	557d                	li	a0,-1
80004c44:	0141                	addi	sp,sp,16
80004c46:	8082                	ret
